Load:  8000 -> bfff
Load:   2e0 ->  2e1
Z00	.equ	$00
Z01	.equ	$01
Z02	.equ	$02
Z03	.equ	$03
Z04	.equ	$04
Z05	.equ	$05
Z0a	.equ	$0a
Z0b	.equ	$0b
Z10	.equ	$10
Z11	.equ	$11
Z20	.equ	$20
Z4c	.equ	$4c
Z54	.equ	$54
Z55	.equ	$55
Z5a	.equ	$5a
Z5b	.equ	$5b
Z85	.equ	$85
Z86	.equ	$86
Z87	.equ	$87
Z88	.equ	$88
Z89	.equ	$89
Z8a	.equ	$8a
Z8b	.equ	$8b
Z8c	.equ	$8c
Z8d	.equ	$8d
Z8e	.equ	$8e
Z8f	.equ	$8f
Z90	.equ	$90
Z91	.equ	$91
Z92	.equ	$92
Z96	.equ	$96
Z97	.equ	$97
Z98	.equ	$98
Z99	.equ	$99
Z9b	.equ	$9b
Z9c	.equ	$9c
Z9d	.equ	$9d
Z9e	.equ	$9e
Z9f	.equ	$9f
Za0	.equ	$a0
Za1	.equ	$a1
Za7	.equ	$a7
Za8	.equ	$a8
Za9	.equ	$a9
Zaa	.equ	$aa
Zab	.equ	$ab
Zac	.equ	$ac
Zad	.equ	$ad
Zae	.equ	$ae
Zaf	.equ	$af
Zb0	.equ	$b0
Zb1	.equ	$b1
Zb2	.equ	$b2
Zb3	.equ	$b3
Zb4	.equ	$b4
Zb5	.equ	$b5
Zb6	.equ	$b6
Zb7	.equ	$b7
Zb8	.equ	$b8
Zb9	.equ	$b9
Zba	.equ	$ba
Zbb	.equ	$bb
Zbf	.equ	$bf
Zc0	.equ	$c0
Zc3	.equ	$c3
Zc4	.equ	$c4
Zc5	.equ	$c5
Zc6	.equ	$c6
Zd2	.equ	$d2
Zd3	.equ	$d3
Zd4	.equ	$d4
Zd5	.equ	$d5
Zda	.equ	$da
Zf2	.equ	$f2
Zf3	.equ	$f3
Zf4	.equ	$f4
D0200	.equ	$0200
D0201	.equ	$0201
D022f	.equ	$022f
D0230	.equ	$0230
D0231	.equ	$0231
D02c0	.equ	$02c0
D02c1	.equ	$02c1
D02c2	.equ	$02c2
D02c3	.equ	$02c3
D02c4	.equ	$02c4
D02c5	.equ	$02c5
D02c6	.equ	$02c6
D02c8	.equ	$02c8
	.org	$02e0
02e0             	.byte	$b1,$9a                  	; ".."
D02e4	.equ	$02e4
D02e8	.equ	$02e8
D02fc	.equ	$02fc
D02ff	.equ	$02ff
D031a	.equ	$031a
D0340	.equ	$0340
D0342	.equ	$0342
D0344	.equ	$0344
D0345	.equ	$0345
D0348	.equ	$0348
D0349	.equ	$0349
D034a	.equ	$034a
D034b	.equ	$034b
D0480	.equ	$0480
D04b0	.equ	$04b0
D04b1	.equ	$04b1
D04b2	.equ	$04b2
D04b3	.equ	$04b3
D04b4	.equ	$04b4
D04b5	.equ	$04b5
D04b6	.equ	$04b6
D04b7	.equ	$04b7
D04ec	.equ	$04ec
D0525	.equ	$0525
D055e	.equ	$055e
D0600	.equ	$0600
D0601	.equ	$0601
D0670	.equ	$0670
D20d1	.equ	$20d1
D3106	.equ	$3106
D3107	.equ	$3107
D310b	.equ	$310b
D310c	.equ	$310c
D3110	.equ	$3110
D3111	.equ	$3111
D3500	.equ	$3500
D3780	.equ	$3780
D3781	.equ	$3781
D3782	.equ	$3782
D3783	.equ	$3783
D3784	.equ	$3784
D3785	.equ	$3785
D3786	.equ	$3786
D3787	.equ	$3787
D3788	.equ	$3788
D3789	.equ	$3789
D379b	.equ	$379b
D379c	.equ	$379c
D379d	.equ	$379d
D37a4	.equ	$37a4
D37a9	.equ	$37a9
D37b0	.equ	$37b0
D37b1	.equ	$37b1
D37b7	.equ	$37b7
D37b8	.equ	$37b8
D37bc	.equ	$37bc
D37bd	.equ	$37bd
D37be	.equ	$37be
D37bf	.equ	$37bf
D37c1	.equ	$37c1
D37c6	.equ	$37c6
D37c8	.equ	$37c8
D37c9	.equ	$37c9
D37ca	.equ	$37ca
D37cb	.equ	$37cb
D37d0	.equ	$37d0
D37d1	.equ	$37d1
S4153	.equ	$4153
S4957	.equ	$4957
S4e45	.equ	$4e45
S4e49	.equ	$4e49
S4f44	.equ	$4f44
S4f54	.equ	$4f54
D5427	.equ	$5427
D544f	.equ	$544f
D554f	.equ	$554f
D5720	.equ	$5720
D608e	.equ	$608e
	.org	$8000
8000             	.byte	$00,$00,$10,$11,$0d,$1e,$1e,$5f	; "......._"
8008             	.byte	$ff,$5f,$1e,$1e,$0d,$11,$10,$00	; "._......"
8010             	.byte	$00,$00,$18,$11,$d9,$fe,$ff,$7f	; "........"
8018             	.byte	$3f,$7e,$3e,$8c,$8c,$c2,$03,$00	; "?~>....."
8020             	.byte	$00,$00,$18,$10,$dd,$ff,$be,$7e	; ".......~"
8028             	.byte	$7e,$7f,$3f,$be,$dc,$04,$06,$00	; "~.?....."
8030             	.byte	$00,$00,$0c,$c8,$dd,$fd,$3e,$7e	; "......>~"
8038             	.byte	$7f,$7f,$ff,$be,$be,$1c,$10,$18	; "........"
8040             	.byte	$00,$00,$cc,$c8,$fd,$7f,$7e,$7f	; "......~."
8048             	.byte	$7f,$ff,$bf,$be,$3c,$18,$10,$18	; "....<..."
8050             	.byte	$00,$60,$60,$76,$6c,$3e,$3e,$7f	; ".``vl>>."
8058             	.byte	$7f,$7d,$fe,$be,$be,$20,$30,$00	; ".}... 0."
8060             	.byte	$00,$10,$38,$38,$10,$ba,$fe,$7c	; "..88...|"
8068             	.byte	$fe,$fe,$fe,$7c,$7c,$ba,$82,$00	; "...||..."
8070             	.byte	$00,$06,$06,$6e,$36,$7c,$7c,$fe	; "...n6||."
8078             	.byte	$fe,$be,$7f,$7b,$7b,$04,$0c,$00	; "...{{..."
8080             	.byte	$00,$33,$13,$bf,$fe,$7f,$fe,$fe	; ".3......"
8088             	.byte	$ff,$fb,$7b,$3c,$18,$08,$18,$00	; "..{<...."
8090             	.byte	$00,$30,$13,$3b,$3f,$fc,$be,$7e	; ".0.;?..~"
8098             	.byte	$fe,$ff,$7d,$7d,$38,$08,$18,$00	; "..}}8..."
80a0             	.byte	$00,$00,$18,$08,$bb,$ff,$7d,$fe	; "......}."
80a8             	.byte	$fe,$fe,$7c,$7d,$3b,$20,$60,$00	; "..|}; `."
80b0             	.byte	$00,$00,$18,$88,$fb,$7f,$ff,$fe	; "........"
80b8             	.byte	$fc,$7e,$7c,$31,$43,$c0,$00,$00	; ".~|1C..."
80c0             	.byte	$00,$00,$08,$88,$b0,$78,$78,$fa	; ".....xx."
80c8             	.byte	$ff,$fa,$78,$78,$b0,$88,$08,$00	; "..xx...."
80d0             D80d0:	.byte	$01                     	; "."
80d1             D80d1:	.byte	$9f                     	; "."
80d2             D80d2:	.byte	$89,$05,$9f,$ca,$15,$a0,$75,$16	; "......u."
80da             	.byte	$a0,$fc,$17,$a1,$24,$18,$a1,$61	; "....$..a"
80e2             	.byte	$19,$a1,$79,$1a,$a1,$58,$1c,$a0	; "..y..X.."
80ea             	.byte	$d3,$1d,$a0,$9b,$1e,$9f,$bc,$1f	; "........"
80f2             	.byte	$9f,$ec,$7e,$9f,$fa,$9c,$a0,$25	; "..~....%"
80fa             	.byte	$9d,$9f,$b4,$fe,$a0,$05,$00,$01	; "........"
8102             	.byte	$9f,$89,$05,$9f,$ca,$19,$a1,$79	; ".......y"
810a             	.byte	$1e,$9f,$bc,$1f,$9f,$ec,$7e,$9f	; "......~."
8112             	.byte	$fa,$9c,$a0,$25,$9d,$94,$38,$fe	; "...%..8."
811a             	.byte	$a0,$05,$00,$2a,$9f,$dd,$2b,$9f	; "...*..+."
8122             	.byte	$9e,$2d,$a0,$d3,$3c,$a1,$9b,$3d	; ".-..<..="
812a             	.byte	$a0,$9b,$3e,$a1,$9f,$00,$e1,$f4	; "..>....."
8132             	.byte	$e1,$f2,$e9,$80,$ec,$ef,$e7,$ef	; "........"
813a             	.byte	$80,$e5,$e4,$e9,$f4,$ef,$f2   	; "......."
8141             D8141:	.byte	$3f,$50,$ff,$40,$01,$ff,$40,$02	; "?P.@..@."
8149             	.byte	$ff,$40,$15,$ff,$40,$45,$ff,$40	; ".@..@E.@"
8151             	.byte	$90,$ff,$3d,$01,$ff,$40,$79,$ff	; "..=..@y."
8159             	.byte	$3f,$80,$ff,$40,$48,$ff,$41,$03	; "?..@H.A."
8161             	.byte	$60,$ff,$42,$03,$27,$67,$50,$ff	; "`.B.'gP."
8169             	.byte	$40,$57,$29,$57,$79,$57,$ff,$44	; "@W)WyW.D"
8171             	.byte	$53,$22,$07,$21,$73,$ff,$44,$01	; "S".!s.D."
8179             	.byte	$ff,$40,$13,$ff,$40,$96,$ff,$41	; ".@..@..A"
8181             	.byte	$01,$60,$ff,$43,$04,$03,$83,$ff	; ".`.C...."
8189             	.byte	$3f,$01,$74,$53,$29,$25      	; "?.tS)%"
818f             D818f:	.byte	$28,$29,$2b,$2d,$2a,$3d,$3e,$3c	; "()+-*=><"
8197             	.byte	$2f,$03,$01,$02,$00,$05,$07,$06	; "/......."
819f             	.byte	$00,$04,$00,$3f,$04,$16,$66,$66	; "...?..ff"
81a7             	.byte	$67,$00,$00,$00,$00,$00,$00,$bf	; "g......."
81af             	.byte	$50,$00,$00,$00,$00,$00,$00,$00	; "P......."
81b7             	.byte	$00,$00,$00,$40,$01,$00,$00,$00	; "...@...."
81bf             	.byte	$00,$3e,$83,$33,$33,$33,$33,$00	; ".>.3333."
81c7             	.byte	$00,$00,$00,$00,$00,$bf,$16,$66	; ".......f"
81cf             	.byte	$66,$66,$67,$00,$00,$00,$00,$00	; "ffg....."
81d7             	.byte	$00,$40,$01,$00,$00,$00,$00,$00	; ".@......"
81df             	.byte	$00,$00,$00,$00,$00         	; "....."

81e4  a0 01      S81e4:	LDY	#$01	; 1 .
81e6  d0 02      	BNE	L81ea

81e8  a0 03      S81e8:	LDY	#$03	; 3 .
81ea  a5 89      L81ea:	LDA	Z89
81ec  91 87      	STA	(Z87),Y
81ee  c8         	INY
81ef  a5 8a      	LDA	Z8a
81f1  91 87      	STA	(Z87),Y
81f3  60         	RTS

81f4  a0 01      S81f4:	LDY	#$01	; 1 .
81f6  d0 02      	BNE	L81fa

81f8  a0 03      S81f8:	LDY	#$03	; 3 .
81fa  a5 8b      L81fa:	LDA	Z8b
81fc  91 87      	STA	(Z87),Y
81fe  c8         	INY
81ff  a5 8c      	LDA	Z8c
8201  91 87      	STA	(Z87),Y
8203  60         	RTS
8204             	.byte	$a0,$01,$d0,$02,$a0,$03,$a9,$00	; "........"
820c             	.byte	$91,$87,$c8,$91,$87,$60      	; ".....`"

8212  a0 01      S8212:	LDY	#$01	; 1 .
8214  d0 02      	BNE	L8218

8216  a0 03      S8216:	LDY	#$03	; 3 .
8218  a5 87      L8218:	LDA	Z87
821a  91 89      	STA	(Z89),Y
821c  c8         	INY
821d  a5 88      	LDA	Z88
821f  91 89      	STA	(Z89),Y
8221  60         	RTS
8222             	.byte	$a0,$01,$d0,$02            	; "...."

8226  a0 03      S8226:	LDY	#$03	; 3 .
8228  a5 8b      	LDA	Z8b
822a  91 89      	STA	(Z89),Y
822c  c8         	INY
822d  a5 8c      	LDA	Z8c
822f  91 89      	STA	(Z89),Y
8231  60         	RTS

8232  a0 01      S8232:	LDY	#$01	; 1 .
8234  d0 02      	BNE	L8238

8236  a0 03      S8236:	LDY	#$03	; 3 .
8238  a5 87      L8238:	LDA	Z87
823a  91 8b      	STA	(Z8b),Y
823c  c8         	INY
823d  a5 88      	LDA	Z88
823f  91 8b      	STA	(Z8b),Y
8241  60         	RTS

8242  a0 01      S8242:	LDY	#$01	; 1 .
8244  d0 02      	BNE	L8248

8246  a0 03      S8246:	LDY	#$03	; 3 .
8248  a5 89      L8248:	LDA	Z89
824a  91 8b      	STA	(Z8b),Y
824c  c8         	INY
824d  a5 8a      	LDA	Z8a
824f  91 8b      	STA	(Z8b),Y
8251  60         	RTS

8252  a0 01      S8252:	LDY	#$01	; 1 .
8254  d0 02      	BNE	L8258

8256  a0 03      S8256:	LDY	#$03	; 3 .
8258  b1 87      L8258:	LDA	(Z87),Y
825a  aa         	TAX
825b  c8         	INY
825c  b1 87      	LDA	(Z87),Y
825e  86 87      	STX	Z87
8260  85 88      	STA	Z88
8262  60         	RTS

8263  20 6d 82   S8263:	JSR	S826d

8266  a0 01      S8266:	LDY	#$01	; 1 .
8268  d0 05      	BNE	L826f

826a  20 6d 82   S826a:	JSR	S826d

826d  a0 03      S826d:	LDY	#$03	; 3 .
826f  b1 89      L826f:	LDA	(Z89),Y
8271  aa         	TAX
8272  c8         	INY
8273  b1 89      	LDA	(Z89),Y
8275  86 89      	STX	Z89
8277  85 8a      	STA	Z8a
8279  60         	RTS

827a  a0 01      S827a:	LDY	#$01	; 1 .
827c  d0 05      	BNE	L8283

827e  20 81 82   S827e:	JSR	S8281

8281  a0 03      S8281:	LDY	#$03	; 3 .
8283  b1 8b      L8283:	LDA	(Z8b),Y
8285  aa         	TAX
8286  c8         	INY
8287  b1 8b      	LDA	(Z8b),Y
8289  86 8b      	STX	Z8b
828b  85 8c      	STA	Z8c
828d  60         	RTS

828e  a0 01      S828e:	LDY	#$01	; 1 .
8290  b1 9b      	LDA	(Z9b),Y
8292  aa         	TAX
8293  c8         	INY
8294  b1 9b      	LDA	(Z9b),Y
8296  86 89      	STX	Z89
8298  85 8a      	STA	Z8a
829a  60         	RTS

829b  a0 03      S829b:	LDY	#$03	; 3 .
829d  b1 9b      	LDA	(Z9b),Y
829f  aa         	TAX
82a0  c8         	INY
82a1  b1 9b      	LDA	(Z9b),Y
82a3  86 9b      	STX	Z9b
82a5  85 9c      	STA	Z9c
82a7  d0 03      	BNE	L82ac
82a9  8d 9b 37   	STA	D379b
82ac  60         L82ac:	RTS

82ad  a0 03      S82ad:	LDY	#$03	; 3 .
82af  b1 a7      	LDA	(Za7),Y
82b1  aa         	TAX
82b2  c8         	INY
82b3  b1 a7      	LDA	(Za7),Y
82b5  86 a7      	STX	Za7
82b7  85 a8      	STA	Za8
82b9  60         	RTS
82ba             	.byte	$a9,$00,$85,$87,$85,$88,$60   	; "......`"

82c1  a9 00      S82c1:	LDA	#$00	; 0 .
82c3  85 89      	STA	Z89
82c5  85 8a      	STA	Z8a
82c7  60         	RTS

82c8  a9 00      S82c8:	LDA	#$00	; 0 .
82ca  85 8b      	STA	Z8b
82cc  85 8c      	STA	Z8c
82ce  60         	RTS

82cf  a9 00      S82cf:	LDA	#$00	; 0 .
82d1  85 8d      	STA	Z8d
82d3  85 8e      	STA	Z8e
82d5  60         	RTS

82d6  a9 00      S82d6:	LDA	#$00	; 0 .
82d8  85 9b      	STA	Z9b
82da  85 9c      	STA	Z9c
82dc  60         	RTS

82dd  a5 89      S82dd:	LDA	Z89
82df  85 87      	STA	Z87
82e1  a5 8a      	LDA	Z8a
82e3  85 88      	STA	Z88
82e5  60         	RTS

82e6  a5 8b      S82e6:	LDA	Z8b
82e8  85 87      	STA	Z87
82ea  a5 8c      	LDA	Z8c
82ec  85 88      	STA	Z88
82ee  60         	RTS

82ef  a5 9b      S82ef:	LDA	Z9b
82f1  85 87      	STA	Z87
82f3  a5 9c      	LDA	Z9c
82f5  85 88      	STA	Z88
82f7  60         	RTS
82f8  a5 87      L82f8:	LDA	Z87
82fa  85 a7      	STA	Za7
82fc  a5 88      	LDA	Z88
82fe  85 a8      	STA	Za8
8300  60         	RTS

8301  a5 a7      S8301:	LDA	Za7
8303  85 87      	STA	Z87
8305  a5 a8      	LDA	Za8
8307  85 88      	STA	Z88
8309  60         	RTS

830a  a5 9f      S830a:	LDA	Z9f
830c  85 87      	STA	Z87
830e  a5 a0      	LDA	Za0
8310  85 88      	STA	Z88
8312  60         	RTS
8313             	.byte	$a5,$8f,$85,$87,$a5,$90,$85,$88	; "........"
831b             	.byte	$60                     	; "`"

831c  a5 97      S831c:	LDA	Z97
831e  85 87      	STA	Z87
8320  a5 98      	LDA	Z98
8322  85 88      	STA	Z88
8324  60         	RTS

8325  a5 87      S8325:	LDA	Z87
8327  85 89      	STA	Z89
8329  a5 88      	LDA	Z88
832b  85 8a      	STA	Z8a
832d  60         	RTS

832e  a5 8b      S832e:	LDA	Z8b
8330  85 89      	STA	Z89
8332  a5 8c      	LDA	Z8c
8334  85 8a      	STA	Z8a
8336  60         	RTS

8337  a5 9b      S8337:	LDA	Z9b
8339  85 89      	STA	Z89
833b  a5 9c      	LDA	Z9c
833d  85 8a      	STA	Z8a
833f  60         	RTS

8340  a5 9d      S8340:	LDA	Z9d
8342  85 89      	STA	Z89
8344  a5 9e      	LDA	Z9e
8346  85 8a      	STA	Z8a
8348  60         	RTS

8349  a5 8f      S8349:	LDA	Z8f
834b  85 89      	STA	Z89
834d  a5 90      	LDA	Z90
834f  85 8a      	STA	Z8a
8351  60         	RTS
8352             	.byte	$a5,$ab,$85,$89,$a5,$ac,$85,$8a	; "........"
835a             	.byte	$60                     	; "`"

835b  a5 87      S835b:	LDA	Z87
835d  85 8b      	STA	Z8b
835f  a5 88      	LDA	Z88
8361  85 8c      	STA	Z8c
8363  60         	RTS

8364  a5 89      S8364:	LDA	Z89
8366  85 8b      	STA	Z8b
8368  a5 8a      	LDA	Z8a
836a  85 8c      	STA	Z8c
836c  60         	RTS

836d  a5 9d      S836d:	LDA	Z9d
836f  85 8b      	STA	Z8b
8371  a5 9e      	LDA	Z9e
8373  85 8c      	STA	Z8c
8375  60         	RTS

8376  a5 ab      S8376:	LDA	Zab
8378  85 8b      	STA	Z8b
837a  a5 ac      	LDA	Zac
837c  85 8c      	STA	Z8c
837e  60         	RTS

837f  a5 87      S837f:	LDA	Z87
8381  85 9b      	STA	Z9b
8383  a5 88      	LDA	Z88
8385  85 9c      	STA	Z9c
8387  60         	RTS

8388  a5 87      S8388:	LDA	Z87
838a  85 9f      	STA	Z9f
838c  a5 88      	LDA	Z88
838e  85 a0      	STA	Za0
8390  60         	RTS
8391             	.byte	$a5,$87,$85,$ab,$a5,$88,$85,$ac	; "........"
8399             	.byte	$60                     	; "`"

839a  a5 89      S839a:	LDA	Z89
839c  85 9b      	STA	Z9b
839e  a5 8a      	LDA	Z8a
83a0  85 9c      	STA	Z9c
83a2  60         	RTS

83a3  a5 89      S83a3:	LDA	Z89
83a5  85 9d      	STA	Z9d
83a7  a5 8a      	LDA	Z8a
83a9  85 9e      	STA	Z9e
83ab  60         	RTS
83ac             	.byte	$a5,$87,$85,$8f,$a5,$88,$85,$90	; "........"
83b4             	.byte	$60                     	; "`"

83b5  a5 89      S83b5:	LDA	Z89
83b7  85 8f      	STA	Z8f
83b9  a5 8a      	LDA	Z8a
83bb  85 90      	STA	Z90
83bd  60         	RTS
83be             	.byte	$a5,$89,$85,$ab,$a5,$8a,$85,$ac	; "........"
83c6             	.byte	$60                     	; "`"

83c7  a5 8b      S83c7:	LDA	Z8b
83c9  85 ab      	STA	Zab
83cb  a5 8c      	LDA	Z8c
83cd  85 ac      	STA	Zac
83cf  60         	RTS

83d0  a9 00      S83d0:	LDA	#$00	; 0 .
83d2  85 8b      	STA	Z8b
83d4  a9 31      	LDA	#$31	; 49 1
83d6  85 8c      	STA	Z8c
83d8  60         	RTS

83d9  a9 19      S83d9:	LDA	#$19	; 25 .
83db  85 89      	STA	Z89
83dd  a9 31      	LDA	#$31	; 49 1
83df  85 8a      	STA	Z8a
83e1  60         	RTS

83e2  ad 0b 31   S83e2:	LDA	D310b
83e5  85 89      	STA	Z89
83e7  ad 0c 31   	LDA	D310c
83ea  85 8a      	STA	Z8a
83ec  60         	RTS

83ed  a9 00      S83ed:	LDA	#$00	; 0 .
83ef  85 bf      	STA	Zbf
83f1  a9 31      	LDA	#$31	; 49 1
83f3  85 c0      	STA	Zc0
83f5  60         	RTS

83f6  a9 00      S83f6:	LDA	#$00	; 0 .
83f8  85 87      	STA	Z87
83fa  a9 31      	LDA	#$31	; 49 1
83fc  85 88      	STA	Z88
83fe  60         	RTS

83ff  a9 1e      S83ff:	LDA	#$1e	; 30 .
8401  85 87      	STA	Z87
8403  a9 31      	LDA	#$31	; 49 1
8405  85 88      	STA	Z88
8407  60         	RTS

8408  a5 8b      S8408:	LDA	Z8b
840a  d0 02      	BNE	L840e
840c  c6 8c      	DEC	Z8c
840e  c6 8b      L840e:	DEC	Z8b
8410  60         	RTS

8411  a2 87      S8411:	LDX	#$87	; 135 .
8413  d0 02      	BNE	L8417

8415  a2 bf      S8415:	LDX	#$bf	; 191 .
8417  18         L8417:	CLC
8418  b5 00      	LDA	Z00,X
841a  69 05      	ADC	#$05	; 5 .
841c  95 00      	STA	Z00,X
841e  c9 ff      	CMP	#$ff	; 255 .
8420  d0 14      	BNE	L8436
8422  f6 00      	INC	Z00,X
8424  f6 01      	INC	Z01,X
8426  b5 01      	LDA	Z01,X
8428  cd bf 37   	CMP	D37bf
842b  d0 05      	BNE	L8432
842d  ad bd 37   	LDA	D37bd
8430  95 01      	STA	Z01,X
8432  cd be 37   L8432:	CMP	D37be
8435  60         	RTS
8436  a9 01      L8436:	LDA	#$01	; 1 .
8438  60         	RTS
8439             	.byte	$20,$d8,$84,$20,$11,$84,$20,$ee	; " .. .. ."
8441             	.byte	$84                     	; "."

8442  a5 88      S8442:	LDA	Z88
8444  c9 34      	CMP	#$34	; 52 4
8446  d0 04      	BNE	L844c
8448  a5 87      	LDA	Z87
844a  c9 41      	CMP	#$41	; 65 A
844c  60         L844c:	RTS

844d  a5 c0      S844d:	LDA	Zc0
844f  c9 34      	CMP	#$34	; 52 4
8451  d0 04      	BNE	L8457
8453  a5 bf      	LDA	Zbf
8455  c9 41      	CMP	#$41	; 65 A
8457  60         L8457:	RTS

8458  a5 8c      S8458:	LDA	Z8c
845a  cd bc 37   	CMP	D37bc
845d  90 12      	BCC	L8471
845f  cd bf 37   	CMP	D37bf
8462  90 05      	BCC	L8469
8464  cd bd 37   	CMP	D37bd
8467  b0 03      	BCS	L846c
8469  a9 00      L8469:	LDA	#$00	; 0 .
846b  60         	RTS
846c  cd be 37   L846c:	CMP	D37be
846f  90 f8      	BCC	L8469
8471  a9 01      L8471:	LDA	#$01	; 1 .
8473  60         	RTS

8474  20 66 82   S8474:	JSR	S8266
8477  c9 31      	CMP	#$31	; 49 1
8479  d0 04      	BNE	L847f
847b  a5 89      	LDA	Z89
847d  c9 00      	CMP	#$00	; 0 .
847f  60         L847f:	RTS
8480             	.byte	$a0,$00,$b1,$9b,$f0,$e3,$29,$08	; "......)."
8488             	.byte	$d0,$df,$b1,$9b,$c9,$05,$d0,$e1	; "........"
8490             	.byte	$20,$8e,$82,$a0,$00,$b1,$89,$c9	; " ......."
8498             	.byte	$21,$f0,$d6,$20,$3c,$8e,$a5,$8a	; "!.. <..."
84a0             	.byte	$c9,$31,$d0,$cd,$a5,$89,$c9,$2d	; ".1.....-"
84a8             	.byte	$60,$20,$c1,$82,$20,$80,$84,$d0	; "` .. ..."
84b0             	.byte	$0a,$20,$9e,$84,$d0,$03,$20,$9b	; ". .... ."
84b8             	.byte	$82,$a9,$00,$60            	; "...`"

84bc  20 49 83   S84bc:	JSR	S8349
84bf  20 6d 82   	JSR	S826d
84c2  a0 00      	LDY	#$00	; 0 .
84c4  b1 89      	LDA	(Z89),Y
84c6  85 8d      	STA	Z8d
84c8  84 8e      	STY	Z8e
84ca  60         	RTS

84cb  ad 0b 31   S84cb:	LDA	D310b
84ce  c9 00      	CMP	#$00	; 0 .
84d0  d0 05      	BNE	L84d7
84d2  ad 0c 31   	LDA	D310c
84d5  c9 31      	CMP	#$31	; 49 1
84d7  60         L84d7:	RTS
84d8             	.byte	$ad,$ac,$37,$85,$87,$ad,$ad,$37	; "..7....7"
84e0             	.byte	$85,$88,$60,$ad,$ae,$37,$85,$89	; "..`..7.."
84e8             	.byte	$ad,$af,$37,$85,$8a,$60,$a5,$87	; "..7..`.."
84f0             	.byte	$8d,$ac,$37,$a5,$88,$8d,$ad,$37	; "..7....7"
84f8             	.byte	$60,$a5,$89,$8d,$ae,$37,$a5,$8a	; "`....7.."
8500             	.byte	$8d,$af,$37,$60            	; "..7`"

8504  a9 00      S8504:	LDA	#$00	; 0 .
8506  85 54      	STA	Z54
8508  a9 01      	LDA	#$01	; 1 .
850a  85 55      	STA	Z55
850c  60         	RTS
850d             	.byte	$20,$e6,$8f,$20,$af,$8d,$a0,$02	; " .. ...."
8515             	.byte	$b1,$8b,$91,$89,$88,$10,$f9,$20	; "....... "
851d             	.byte	$dd,$82,$20,$e6,$8f,$20,$e8,$81	; ".. .. .."
8525             	.byte	$20,$81,$82,$d0,$e9,$4c,$08,$82	; " ....L.."

852d  a9 00      S852d:	LDA	#$00	; 0 .
852f  f0 28      	BEQ	L8559

8531  a9 06      S8531:	LDA	#$06	; 6 .
8533  d0 24      	BNE	L8559

8535  a9 0c      S8535:	LDA	#$0c	; 12 .
8537  d0 20      	BNE	L8559

8539  a9 18      S8539:	LDA	#$18	; 24 .
853b  d0 1c      	BNE	L8559

853d  a9 12      S853d:	LDA	#$12	; 18 .
853f  d0 18      	BNE	L8559
8541  a9 1e      	LDA	#$1e	; 30 .
8543  d0 14      	BNE	L8559
8545  a9 24      	LDA	#$24	; 36 $
8547  d0 10      	BNE	L8559

8549  a9 2a      S8549:	LDA	#$2a	; 42 *
854b  d0 0c      	BNE	L8559

854d  a0 f0      S854d:	LDY	#$f0	; 240 .
854f  d0 0c      	BNE	L855d
8551  a0 e4      	LDY	#$e4	; 228 .
8553  d0 08      	BNE	L855d
8555  a0 ea      	LDY	#$ea	; 234 .
8557  d0 04      	BNE	L855d
8559  18         L8559:	CLC
855a  65 d3      	ADC	Zd3
855c  a8         	TAY
855d  a2 00      L855d:	LDX	#$00	; 0 .
855f  b9 80 04   L855f:	LDA	D0480,Y
8562  9d d4 00   	STA	Zd4,X
8565  c8         	INY
8566  e8         	INX
8567  e0 06      	CPX	#$06	; 6 .
8569  d0 f4      	BNE	L855f
856b  60         	RTS

856c  a9 00      S856c:	LDA	#$00	; 0 .
856e  f0 28      	BEQ	L8598

8570  a9 06      S8570:	LDA	#$06	; 6 .
8572  d0 24      	BNE	L8598

8574  a9 0c      S8574:	LDA	#$0c	; 12 .
8576  d0 20      	BNE	L8598

8578  a9 18      S8578:	LDA	#$18	; 24 .
857a  d0 1c      	BNE	L8598

857c  a9 12      S857c:	LDA	#$12	; 18 .
857e  d0 18      	BNE	L8598

8580  a9 1e      S8580:	LDA	#$1e	; 30 .
8582  d0 14      	BNE	L8598

8584  a9 24      S8584:	LDA	#$24	; 36 $
8586  d0 10      	BNE	L8598

8588  a9 2a      S8588:	LDA	#$2a	; 42 *
858a  d0 0c      	BNE	L8598

858c  a0 f0      S858c:	LDY	#$f0	; 240 .
858e  d0 0c      	BNE	L859c
8590  a0 e4      L8590:	LDY	#$e4	; 228 .
8592  d0 08      	BNE	L859c
8594  a0 ea      L8594:	LDY	#$ea	; 234 .
8596  d0 04      	BNE	L859c
8598  18         L8598:	CLC
8599  65 d3      	ADC	Zd3
859b  a8         	TAY
859c  a2 00      L859c:	LDX	#$00	; 0 .
859e  bd d4 00   L859e:	LDA	Zd4,X
85a1  99 80 04   	STA	D0480,Y
85a4  c8         	INY
85a5  e8         	INX
85a6  e0 06      	CPX	#$06	; 6 .
85a8  d0 f4      	BNE	L859e
85aa  60         	RTS
85ab             	.byte	$a2,$e0,$d0,$02            	; "...."

85af  a2 d4      S85af:	LDX	#$d4	; 212 .
85b1  a5 89      	LDA	Z89
85b3  48         	PHA
85b4  a5 8a      	LDA	Z8a
85b6  48         	PHA
85b7  a0 01      	LDY	#$01	; 1 .
85b9  b1 89      	LDA	(Z89),Y
85bb  95 00      	STA	Z00,X
85bd  c8         	INY
85be  e8         	INX
85bf  b1 89      	LDA	(Z89),Y
85c1  95 00      	STA	Z00,X
85c3  8a         	TXA
85c4  48         	PHA
85c5  20 6d 82   	JSR	S826d
85c8  68         	PLA
85c9  aa         	TAX
85ca  a0 01      	LDY	#$01	; 1 .
85cc  b1 89      L85cc:	LDA	(Z89),Y
85ce  95 01      	STA	Z01,X
85d0  e8         	INX
85d1  c8         	INY
85d2  c0 05      	CPY	#$05	; 5 .
85d4  d0 f6      	BNE	L85cc
85d6  68         	PLA
85d7  85 8a      	STA	Z8a
85d9  68         	PLA
85da  85 89      	STA	Z89
85dc  60         	RTS

85dd  a2 d4      S85dd:	LDX	#$d4	; 212 .
85df  d0 02      	BNE	L85e3

85e1  a2 e0      S85e1:	LDX	#$e0	; 224 .
85e3  a9 00      L85e3:	LDA	#$00	; 0 .
85e5  95 02      	STA	Z02,X
85e7  95 03      	STA	Z03,X
85e9  95 04      	STA	Z04,X
85eb  95 05      	STA	Z05,X
85ed  b9 41 81   L85ed:	LDA	D8141,Y
85f0  c9 ff      	CMP	#$ff	; 255 .
85f2  f0 06      	BEQ	L85fa
85f4  95 00      	STA	Z00,X
85f6  c8         	INY
85f7  e8         	INX
85f8  d0 f3      	BNE	L85ed
85fa  60         L85fa:	RTS

85fb  a2 d4      S85fb:	LDX	#$d4	; 212 .
85fd  d0 02      	BNE	L8601

85ff  a2 e0      S85ff:	LDX	#$e0	; 224 .
8601  a0 00      L8601:	LDY	#$00	; 0 .
8603  b5 00      L8603:	LDA	Z00,X
8605  99 9d 37   	STA	D379d,Y
8608  e8         	INX
8609  c8         	INY
860a  c0 06      	CPY	#$06	; 6 .
860c  d0 f5      	BNE	L8603
860e  60         	RTS

860f  a2 d4      S860f:	LDX	#$d4	; 212 .
8611  d0 02      	BNE	L8615

8613  a2 e0      S8613:	LDX	#$e0	; 224 .
8615  a0 00      L8615:	LDY	#$00	; 0 .
8617  b9 9d 37   L8617:	LDA	D379d,Y
861a  95 00      	STA	Z00,X
861c  e8         	INX
861d  c8         	INY
861e  c0 06      	CPY	#$06	; 6 .
8620  d0 f5      	BNE	L8617
8622  60         	RTS

8623  a5 d4      S8623:	LDA	Zd4
8625  49 80      	EOR	#$80	; 128 .
8627  85 d4      	STA	Zd4
8629  60         	RTS

862a  a9 9b      S862a:	LDA	#$9b	; 155 .
862c  4c b9 97   	JMP	S97b9
862f             	.byte	$a9,$20,$4c,$b9,$97,$a9,$22,$4c	; ". L..."L"
8637             	.byte	$b9,$97                  	; ".."

8639  a9 3f      S8639:	LDA	#$3f	; 63 ?
863b  d0 02      	BNE	L863f
863d  a9 3e      	LDA	#$3e	; 62 >
863f  20 48 86   L863f:	JSR	S8648
8642  d0 03      	BNE	L8647
8644  20 b9 97   	JSR	S97b9
8647  60         L8647:	RTS

8648  a2 80      S8648:	LDX	#$80	; 128 .
864a  a0 96      	LDY	#$96	; 150 .
864c  d0 04      	BNE	L8652
864e  a2 59      	LDX	#$59	; 89 Y
8650  a0 96      	LDY	#$96	; 150 .
8652  e4 c3      L8652:	CPX	Zc3
8654  d0 02      	BNE	L8658
8656  c4 c4      	CPY	Zc4
8658  60         L8658:	RTS

8659  a2 b8      S8659:	LDX	#$b8	; 184 .
865b  a0 98      	LDY	#$98	; 152 .
865d  d0 04      	BNE	L8663

865f  a2 f4      S865f:	LDX	#$f4	; 244 .
8661  a0 97      	LDY	#$97	; 151 .
8663  e4 c5      L8663:	CPX	Zc5
8665  d0 02      	BNE	L8669
8667  c4 c6      	CPY	Zc6
8669  60         L8669:	RTS

866a  a2 80      S866a:	LDX	#$80	; 128 .
866c  a0 96      	LDY	#$96	; 150 .
866e  d0 10      	BNE	L8680
8670  a2 78      	LDX	#$78	; 120 x
8672  a0 96      	LDY	#$96	; 150 .
8674  d0 0a      	BNE	L8680
8676  a2 59      	LDX	#$59	; 89 Y
8678  a0 96      	LDY	#$96	; 150 .
867a  d0 04      	BNE	L8680
867c  a2 7c      	LDX	#$7c	; 124 |
867e  a0 96      	LDY	#$96	; 150 .
8680  86 c3      L8680:	STX	Zc3
8682  84 c4      	STY	Zc4
8684  60         	RTS

8685  a2 b8      S8685:	LDX	#$b8	; 184 .
8687  a0 98      	LDY	#$98	; 152 .
8689  d0 10      	BNE	L869b

868b  a2 f4      S868b:	LDX	#$f4	; 244 .
868d  a0 97      	LDY	#$97	; 151 .
868f  d0 0a      	BNE	L869b

8691  a2 bb      S8691:	LDX	#$bb	; 187 .
8693  a0 98      	LDY	#$98	; 152 .
8695  d0 04      	BNE	L869b
8697  a2 bf      	LDX	#$bf	; 191 .
8699  a0 97      	LDY	#$97	; 151 .
869b  86 c5      L869b:	STX	Zc5
869d  84 c6      	STY	Zc6
869f  60         	RTS

86a0  a0 fd      S86a0:	LDY	#$fd	; 253 .
86a2  c8         L86a2:	INY
86a3  c8         	INY
86a4  c8         	INY
86a5  d9 1a 03   	CMP	D031a,Y
86a8  d0 f8      	BNE	L86a2
86aa  a9 00      	LDA	#$00	; 0 .
86ac  99 1a 03   	STA	D031a,Y
86af  60         	RTS
86b0             	.byte	$a5,$aa,$d0,$10,$20,$33,$90,$a5	; ".... 3.."
86b8             	.byte	$aa,$d0,$09,$a5,$a9,$c9,$64,$b0	; "......d."
86c0             	.byte	$03,$4c,$09,$87,$60         	; ".L..`"

86c5  ae e8 02   S86c5:	LDX	D02e8
86c8  e8         	INX
86c9  8e bc 37   	STX	D37bc
86cc  ad e4 02   	LDA	D02e4
86cf  c9 41      	CMP	#$41	; 65 A
86d1  b0 13      	BCS	L86e6
86d3  a9 20      	LDA	#$20	; 32  
86d5  8d bf 37   	STA	D37bf
86d8  8d c1 37   	STA	D37c1
86db  a9 2f      	LDA	#$2f	; 47 /
86dd  8d bd 37   	STA	D37bd
86e0  a9 35      	LDA	#$35	; 53 5
86e2  8d be 37   	STA	D37be
86e5  60         	RTS
86e6  c9 80      L86e6:	CMP	#$80	; 128 .
86e8  90 02      	BCC	L86ec
86ea  a9 80      	LDA	#$80	; 128 .
86ec  8d be 37   L86ec:	STA	D37be
86ef  a9 35      	LDA	#$35	; 53 5
86f1  8d bf 37   	STA	D37bf
86f4  a9 40      	LDA	#$40	; 64 @
86f6  8d c1 37   	STA	D37c1
86f9  a9 4f      	LDA	#$4f	; 79 O
86fb  8d bd 37   	STA	D37bd
86fe  60         	RTS
86ff             	.byte	$4b,$3a,$9b,$20,$06,$99,$54,$4f	; "K:. ..TO"
8707             	.byte	$a0,$60                  	; ".`"
8709  20 18 99   L8709:	JSR	S9918
870c             	.byte	$4f,$55,$54,$20,$4f,$46,$20,$53	; "OUT OF S"
8714             	.byte	$50,$41,$43,$c5            	; "PAC."
8718  20 18 99   L8718:	JSR	S9918
871b  59 4f 55   	EOR	D554f,Y
871e  20 44 4f   	JSR	S4f44
8721  4e 27 54   	LSR	D5427
8724  20 53 41   	JSR	S4153
8727  59 20 57   	EOR	D5720,Y
872a  48         	PHA
872b  41 54      	EOR	(Z54,X)
872d  20 54 4f   	JSR	S4f54
8730  20 44 4f   	JSR	S4f44
8733  20 57 49   	JSR	S4957
8736             	.byte	$54,$48,$20,$81,$20,$18,$99,$54	; "TH . ..T"
873e             	.byte	$4f,$4f,$20,$4d,$55,$43,$48,$20	; "OO MUCH "
8746             	.byte	$49,$4e,$20,$28,$29,$27,$d3   	; "IN ()'."
874d  20 18 99   L874d:	JSR	S9918
8750  4e 4f 54   	LSR	D544f
8753  20 45 4e   	JSR	S4e45
8756             	.byte	$4f,$55,$47,$48,$20,$49,$4e,$50	; "OUGH INP"
875e             	.byte	$55,$54,$53,$20,$54,$4f,$20,$82	; "UTS TO ."
8766             	.byte	$20,$18,$99,$55,$4e,$45,$58,$50	; " ..UNEXP"
876e             	.byte	$45,$43,$54,$45,$44,$20,$27,$29	; "ECTED ')"
8776             	.byte	$a7                     	; "."
8777  20 18 99   L8777:	JSR	S9918
877a  49 20      	EOR	#$20	; 32  
877c             	.byte	$44,$4f,$4e,$27,$54,$20,$4b,$4e	; "DON'T KN"
8784             	.byte	$4f,$57,$20,$48,$4f,$57,$20,$54	; "OW HOW T"
878c             	.byte	$4f,$20,$82               	; "O ."
878f  20 18 99   L878f:	JSR	S9918
8792             	.byte	$03,$20,$44,$49,$44,$4e,$27,$54	; ". DIDN'T"
879a             	.byte	$20,$4f,$55,$54,$50,$55,$54,$20	; " OUTPUT "
87a2             	.byte	$54,$4f,$20,$82,$20,$18,$99,$4e	; "TO . ..N"
87aa             	.byte	$55,$4d,$42,$45,$52,$20,$54,$4f	; "UMBER TO"
87b2             	.byte	$4f,$20,$42,$49,$c7         	; "O BI."
87b7  20 44 da   L87b7:	JSR	Sda44
87ba  20 bf 95   	JSR	S95bf
87bd  20 18 99   	JSR	S9918
87c0             	.byte	$02,$20,$44,$4f,$45,$53,$4e,$27	; ". DOESN'"
87c8             	.byte	$54,$20,$4c,$49,$4b,$45,$20,$03	; "T LIKE ."
87d0             	.byte	$20,$41,$53,$20,$49,$4e,$50,$55	; " AS INPU"
87d8             	.byte	$d4                     	; "."
87d9  20 25 83   L87d9:	JSR	S8325
87dc  20 18 99   	JSR	S9918
87df             	.byte	$03,$20,$48,$41,$53,$20,$4e,$4f	; ". HAS NO"
87e7             	.byte	$20,$56,$41,$4c,$55,$c5,$84,$89	; " VALU..."
87ef             	.byte	$86,$8a,$20,$18,$99,$03,$20,$49	; ".. ... I"
87f7             	.byte	$53,$20,$41,$20,$50,$52,$49,$4d	; "S A PRIM"
87ff             	.byte	$49,$54,$49,$56,$c5,$20,$18,$99	; "ITIV. .."
8807             	.byte	$03,$20,$49,$53,$20,$41,$4c,$52	; ". IS ALR"
880f             	.byte	$45,$41,$44,$59,$20,$44,$45,$46	; "EADY DEF"
8817             	.byte	$49,$4e,$45,$c4,$20,$18,$99,$03	; "INE. ..."
881f             	.byte	$20,$49,$53,$20,$4e,$4f,$54,$20	; " IS NOT "
8827             	.byte	$54,$52,$55,$45,$20,$4f,$52,$20	; "TRUE OR "
882f             	.byte	$46,$41,$4c,$53,$c5,$20,$18,$99	; "FALS. .."
8837             	.byte	$03,$20,$49,$53,$20,$41,$20,$42	; ". IS A B"
883f             	.byte	$41,$44,$20,$46,$49,$4c,$45,$20	; "AD FILE "
8847             	.byte	$4e,$41,$4d,$c5,$20,$18,$99,$46	; "NAM. ..F"
884f             	.byte	$49,$4c,$45,$20,$03,$20,$4e,$4f	; "ILE . NO"
8857             	.byte	$54,$20,$46,$4f,$55,$4e,$c4,$20	; "T FOUN. "
885f             	.byte	$18,$99,$49,$20,$43,$41,$4e,$27	; "..I CAN'"
8867             	.byte	$54,$20,$4f,$50,$45,$4e,$20,$83	; "T OPEN ."
886f             	.byte	$20,$18,$99,$59,$4f,$55,$27,$52	; " ..YOU'R"
8877             	.byte	$45,$20,$41,$54,$20,$54,$4f,$50	; "E AT TOP"
887f             	.byte	$4c,$45,$56,$45,$cc         	; "LEVE."

8884  a5 11      S8884:	LDA	Z11
8886  f0 01      	BEQ	L8889
8888  60         	RTS
8889  a9 80      L8889:	LDA	#$80	; 128 .
888b  85 11      	STA	Z11
888d  ad b0 37   L888d:	LDA	D37b0
8890  8d b1 37   	STA	D37b1
8893  a9 ff      	LDA	#$ff	; 255 .
8895  8d fc 02   	STA	D02fc
8898  20 18 99   	JSR	S9918
889b             	.byte	$53,$54,$4f,$50,$50,$45,$44,$a1	; "STOPPED."
88a3  20 cb 84   L88a3:	JSR	S84cb
88a6  f0 0d      	BEQ	L88b5
88a8  20 06 99   	JSR	S9906
88ab  20 49 4e   	JSR	S4e49
88ae  a0 20      	LDY	#$20	; 32  
88b0             	.byte	$e2,$83,$20,$89,$99         	; ".. .."
88b5  ad c8 37   L88b5:	LDA	D37c8
88b8  d0 03      	BNE	L88bd
88ba  20 2e 94   	JSR	S942e
88bd  a9 ff      L88bd:	LDA	#$ff	; 255 .
88bf  8d c8 37   	STA	D37c8
88c2  a4 d3      	LDY	Zd3
88c4  b9 b2 04   	LDA	D04b2,Y
88c7  29 0f      	AND	#$0f	; 15 .
88c9  99 b2 04   	STA	D04b2,Y
88cc  ad b7 37   	LDA	D37b7
88cf  c9 02      	CMP	#$02	; 2 .
88d1  d0 03      	BNE	L88d6
88d3  20 65 b3   	JSR	Sb365
88d6  20 2a 86   L88d6:	JSR	S862a
88d9  20 4c 96   	JSR	S964c
88dc  4c 53 9f   	JMP	L9f53

88df  ad c9 37   S88df:	LDA	D37c9
88e2  0d ca 37   	ORA	D37ca
88e5  0d cb 37   	ORA	D37cb
88e8  2d c8 37   	AND	D37c8
88eb  f0 73      	BEQ	L8960
88ed  18         	CLC
88ee  a0 00      	LDY	#$00	; 0 .
88f0  98         	TYA
88f1  ae c9 37   	LDX	D37c9
88f4  d0 0b      	BNE	L8901
88f6  69 08      	ADC	#$08	; 8 .
88f8  c8         	INY
88f9  ae ca 37   	LDX	D37ca
88fc  d0 03      	BNE	L8901
88fe  69 08      	ADC	#$08	; 8 .
8900  c8         	INY
8901  aa         L8901:	TAX
8902  a9 01      	LDA	#$01	; 1 .
8904  48         L8904:	PHA
8905  39 c9 37   	AND	D37c9,Y
8908  d0 05      	BNE	L890f
890a  68         	PLA
890b  0a         	ASL
890c  e8         	INX
890d  d0 f5      	BNE	L8904
890f  68         L890f:	PLA
8910  49 ff      	EOR	#$ff	; 255 .
8912  39 c9 37   	AND	D37c9,Y
8915  99 c9 37   	STA	D37c9,Y
8918  8a         	TXA
8919  0a         	ASL
891a  a8         	TAY
891b  b9 d0 37   	LDA	D37d0,Y
891e  85 89      	STA	Z89
8920  b9 d1 37   	LDA	D37d1,Y
8923  85 8a      	STA	Z8a
8925  f0 39      	BEQ	L8960
8927  a9 00      	LDA	#$00	; 0 .
8929  8d c8 37   	STA	D37c8
892c  20 af 8d   	JSR	S8daf
892f  20 a0 8d   	JSR	S8da0
8932  a9 00      	LDA	#$00	; 0 .
8934  85 8f      	STA	Z8f
8936  a9 31      	LDA	#$31	; 49 1
8938  85 90      	STA	Z90
893a  20 cf 82   	JSR	S82cf
893d  a2 80      	LDX	#$80	; 128 .
893f  bd 00 06   L893f:	LDA	D0600,X
8942  9d 00 35   	STA	D3500,X
8945  ca         	DEX
8946  10 f7      	BPL	L893f
8948  20 7d 8d   	JSR	S8d7d
894b             	.byte	$9b,$fd,$a9,$ff,$8d,$c8,$37,$a2	; "......7."
8953             	.byte	$80,$bd,$00,$35,$9d,$00,$06,$ca	; "...5...."
895b             	.byte	$10,$f7,$4c,$31,$8d         	; "..L1."
8960  60         L8960:	RTS
8961             	.byte	$a2,$c7,$20,$f7,$8b,$8d,$8c,$37	; ".. ....7"
8969             	.byte	$a2,$cb,$20,$f7,$8b,$8d,$8a,$37	; ".. ....7"
8971             	.byte	$38,$a5,$cb,$e5,$c7,$a5,$cc,$e5	; "8......."
8979             	.byte	$c8,$90,$21,$a6,$c7,$a4,$cb,$86	; "..!....."
8981             	.byte	$cb,$84,$c7,$a6,$c8,$a4,$cc,$86	; "........"
8989             	.byte	$cc,$84,$c8,$ae,$8c,$37,$ad,$8a	; ".....7.."
8991             	.byte	$37,$8e,$8a,$37,$09,$04,$8d,$8c	; "7..7...."
8999             	.byte	$37,$4c,$a5,$89,$a9,$04,$0d,$8a	; "7L......"
89a1             	.byte	$37,$8d,$8a,$37,$a5,$c8,$8d,$a6	; "7..7...."
89a9             	.byte	$37,$4a,$8d,$a8,$37,$a5,$c7,$8d	; "7J..7..."
89b1             	.byte	$a5,$37,$6a,$8d,$a7,$37,$a5,$c7	; ".7j..7.."
89b9             	.byte	$29,$01,$d0,$12,$ad,$8c,$37,$29	; ").....7)"
89c1             	.byte	$02,$f0,$0b,$ad,$a7,$37,$d0,$03	; ".....7.."
89c9             	.byte	$ce,$a8,$37,$ce,$a7,$37,$ad,$8a	; "..7..7.."
89d1             	.byte	$37,$a8,$b9,$80,$8b,$8d,$8a,$37	; "7......7"
89d9             	.byte	$b9,$81,$8b,$8d,$8b,$37,$ad,$8c	; ".....7.."
89e1             	.byte	$37,$a8,$b9,$80,$8b,$8d,$8c,$37	; "7......7"
89e9             	.byte	$b9,$81,$8b,$8d,$8d,$37,$20,$88	; ".....7 ."
89f1             	.byte	$8b,$20,$39,$8a,$ae,$a5,$37,$d0	; ". 9...7."
89f9             	.byte	$09,$ae,$a6,$37,$d0,$01,$60,$ce	; "...7..`."
8a01             	.byte	$a6,$37,$ce,$a5,$37,$20,$33,$8a	; ".7..7 3."
8a09             	.byte	$38,$ad,$a7,$37,$e5,$cb,$8d,$a7	; "8..7...."
8a11             	.byte	$37,$ad,$a8,$37,$e5,$cc,$8d,$a8	; "7..7...."
8a19             	.byte	$37,$b0,$d6,$20,$36,$8a,$18,$ad	; "7.. 6..."
8a21             	.byte	$a7,$37,$65,$c7,$8d,$a7,$37,$ad	; ".7e...7."
8a29             	.byte	$a8,$37,$65,$c8,$8d,$a8,$37,$4c	; ".7e...7L"
8a31             	.byte	$f2,$89,$6c,$8c,$37,$6c,$8a,$37	; "..l.7l.7"
8a39             	.byte	$ad,$a3,$37,$d0,$34,$a5,$cf,$a4	; "..7.4..."
8a41             	.byte	$d3,$be,$b1,$04,$e0,$02,$f0,$29	; ".......)"
8a49             	.byte	$e0,$00,$f0,$1a,$49,$ff,$a0,$00	; "....I..."
8a51             	.byte	$31,$d0,$91,$d0,$e0,$03,$f0,$19	; "1......."
8a59             	.byte	$a5,$cf,$a4,$d3,$39,$b0,$04,$a0	; "....9..."
8a61             	.byte	$00,$11,$d0,$91,$d0,$60,$a4,$d3	; ".....`.."
8a69             	.byte	$39,$b0,$04,$a0,$00,$51,$d0,$91	; "9....Q.."
8a71             	.byte	$d0,$60,$a5,$c9,$d0,$02,$c6,$ca	; ".`......"
8a79             	.byte	$c6,$c9,$ad,$a3,$37,$f0,$03,$4c	; "....7..L"
8a81             	.byte	$88,$8b,$06,$cf,$06,$cf,$d0,$30	; ".......0"
8a89             	.byte	$a9,$03,$85,$cf,$a5,$d0,$d0,$02	; "........"
8a91             	.byte	$c6,$d1,$c6,$d0,$a5,$ca,$f0,$20	; "....... "
8a99             	.byte	$ae,$a9,$37,$e0,$01,$f0,$03,$68	; "..7....h"
8aa1             	.byte	$68,$60,$a9,$9f,$85,$c9,$a9,$00	; "h`......"
8aa9             	.byte	$85,$ca,$20,$50,$b1,$18,$a9,$28	; ".. P...("
8ab1             	.byte	$65,$d0,$85,$d0,$90,$02,$e6,$d1	; "e......."
8ab9             	.byte	$60,$e6,$c9,$d0,$02,$e6,$ca,$ad	; "`......."
8ac1             	.byte	$a3,$37,$f0,$03,$4c,$88,$8b,$46	; ".7..L..F"
8ac9             	.byte	$cf,$46,$cf,$d0,$2e,$a9,$c0,$85	; ".F......"
8ad1             	.byte	$cf,$e6,$d0,$d0,$02,$e6,$d1,$a5	; "........"
8ad9             	.byte	$c9,$c9,$a0,$d0,$1e,$ae,$a9,$37	; ".......7"
8ae1             	.byte	$e0,$01,$f0,$03,$68,$68,$60,$a9	; "....hh`."
8ae9             	.byte	$00,$85,$c9,$85,$ca,$20,$42,$b1	; "..... B."
8af1             	.byte	$38,$a5,$d0,$e9,$28,$85,$d0,$b0	; "8...(..."
8af9             	.byte	$02,$c6,$d1,$60,$a5,$cd,$d0,$02	; "...`...."
8b01             	.byte	$c6,$ce,$c6,$cd,$ad,$a3,$37,$f0	; "......7."
8b09             	.byte	$03,$4c,$88,$8b,$38,$a5,$d0,$e9	; ".L..8..."
8b11             	.byte	$28,$85,$d0,$b0,$02,$c6,$d1,$a5	; "(......."
8b19             	.byte	$ce,$f0,$23,$ae,$a9,$37,$e0,$01	; "..#..7.."
8b21             	.byte	$f0,$03,$68,$68,$60,$a9,$5f,$85	; "..hh`._."
8b29             	.byte	$cd,$a9,$00,$8d,$ce,$00,$20,$5e	; "...... ^"
8b31             	.byte	$b1,$18,$a5,$d0,$69,$00,$85,$d0	; "....i..."
8b39             	.byte	$a5,$d1,$69,$0f,$85,$d1,$60,$e6	; "..i...`."
8b41             	.byte	$cd,$d0,$02,$e6,$ce,$ad,$a3,$37	; ".......7"
8b49             	.byte	$f0,$03,$4c,$88,$8b,$18,$a5,$d0	; "..L....."
8b51             	.byte	$69,$28,$85,$d0,$90,$02,$e6,$d1	; "i(......"
8b59             	.byte	$a5,$cd,$c9,$60,$d0,$20,$ae,$a9	; "...`. .."
8b61             	.byte	$37,$e0,$01,$f0,$03,$68,$68,$60	; "7....hh`"
8b69             	.byte	$a9,$00,$85,$cd,$85,$ce,$20,$6c	; "...... l"
8b71             	.byte	$b1,$38,$a5,$d0,$e9,$00,$85,$d0	; ".8......"
8b79             	.byte	$a5,$d1,$e9,$0f,$85,$d1,$60,$ba	; "......`."
8b81             	.byte	$8a,$73,$8a,$40,$8b,$fd,$8a,$a5	; ".s.@...."
8b89             	.byte	$ca,$d0,$18,$a5,$ce,$d0,$14,$a5	; "........"
8b91             	.byte	$c9,$c9,$a0,$b0,$0e,$a5,$cd,$c9	; "........"
8b99             	.byte	$60,$b0,$08,$a9,$00,$8d,$a3,$37	; "`......7"
8ba1             	.byte	$4c,$aa,$8b,$a9,$ff,$8d,$a3,$37	; "L......7"
8ba9             	.byte	$60,$a5,$cd,$85,$d0,$a9,$00,$85	; "`......."
8bb1             	.byte	$d1,$06,$d0,$26,$d1,$06,$d0,$26	; "...&...&"
8bb9             	.byte	$d1,$06,$d0,$26,$d1,$a5,$d0,$a6	; "...&...."
8bc1             	.byte	$d1,$06,$d0,$26,$d1,$06,$d0,$26	; "...&...&"
8bc9             	.byte	$d1,$18,$65,$d0,$85,$d0,$8a,$65	; "..e....e"
8bd1             	.byte	$d1,$6d,$c1,$37,$85,$d1,$a5,$c9	; ".m.7...."
8bd9             	.byte	$4a,$4a,$18,$65,$d0,$85,$d0,$90	; "JJ.e...."
8be1             	.byte	$02,$e6,$d1,$a9,$c0,$85,$cf,$a9	; "........"
8be9             	.byte	$03,$25,$c9,$aa,$f0,$07,$46,$cf	; ".%....F."
8bf1             	.byte	$46,$cf,$ca,$d0,$f9,$60,$38,$b5	; "F....`8."
8bf9             	.byte	$00,$f5,$02,$95,$00,$b5,$01,$f5	; "........"
8c01             	.byte	$03,$95,$01,$10,$10,$38,$a9,$00	; ".....8.."
8c09             	.byte	$f5,$00,$95,$00,$a9,$00,$f5,$01	; "........"
8c11             	.byte	$95,$01,$a9,$02,$60,$a9,$00,$60	; "....`..`"

8c19  a9 02      S8c19:	LDA	#$02	; 2 .
8c1b  8d 2f 02   	STA	D022f
8c1e  ad 0b d4   L8c1e:	LDA	Dd40b
8c21  c9 7a      	CMP	#$7a	; 122 z
8c23  d0 f9      	BNE	L8c1e
8c25  68         	PLA
8c26  85 87      	STA	Z87
8c28  68         	PLA
8c29  85 88      	STA	Z88
8c2b  20 33 a2   	JSR	Sa233
8c2e  a9 00      	LDA	#$00	; 0 .
8c30  85 89      	STA	Z89
8c32  a9 37      	LDA	#$37	; 55 7
8c34  85 8a      	STA	Z8a
8c36  20 2f a2   L8c36:	JSR	Sa22f
8c39  aa         	TAX
8c3a  f0 30      	BEQ	L8c6c
8c3c  30 0b      	BMI	L8c49
8c3e  20 2f a2   	JSR	Sa22f
8c41  20 41 a2   L8c41:	JSR	Sa241
8c44  ca         	DEX
8c45  d0 fa      	BNE	L8c41
8c47  f0 ed      	BEQ	L8c36
8c49  49 c0      L8c49:	EOR	#$c0	; 192 .
8c4b  20 41 a2   	JSR	Sa241
8c4e  20 2f a2   	JSR	Sa22f
8c51  85 8b      	STA	Z8b
8c53  20 2f a2   	JSR	Sa22f
8c56  85 8c      	STA	Z8c
8c58  a0 00      	LDY	#$00	; 0 .
8c5a  b1 8b      	LDA	(Z8b),Y
8c5c  aa         	TAX
8c5d  c8         	INY
8c5e  b1 8b      	LDA	(Z8b),Y
8c60  48         	PHA
8c61  8a         	TXA
8c62  20 41 a2   	JSR	Sa241
8c65  68         	PLA
8c66  20 41 a2   	JSR	Sa241
8c69  4c 36 8c   	JMP	L8c36
8c6c  a9 00      L8c6c:	LDA	#$00	; 0 .
8c6e  8d 30 02   	STA	D0230
8c71  a9 37      	LDA	#$37	; 55 7
8c73  8d 31 02   	STA	D0231
8c76  a9 3a      	LDA	#$3a	; 58 :
8c78  8d 2f 02   	STA	D022f
8c7b  60         	RTS

8c7c  20 19 8c   S8c7c:	JSR	S8c19
8c7f             	.byte	$03,$70,$82,$af,$8c,$17,$02,$81	; ".p......"
8c87             	.byte	$b1,$8c,$00,$20,$19,$8c,$03,$70	; "... ...p"
8c8f             	.byte	$8d,$c0,$37,$5f,$0d,$81,$b1,$8c	; "..7_...."
8c97             	.byte	$00                     	; "."

8c98  20 19 8c   S8c98:	JSR	S8c19
8c9b             	.byte	$03,$70,$8d,$c0,$37,$4a,$0d,$01	; ".p..7J.."
8ca3             	.byte	$8d,$01,$10,$82,$b3,$8c,$04,$02	; "........"
8cab             	.byte	$81,$b1,$8c,$00,$40,$38,$00,$37	; "....@8.7"
8cb3             	.byte	$38,$3b                  	; "8;"

8cb5  a9 3a      S8cb5:	LDA	#$3a	; 58 :
8cb7  8d 2f 02   	STA	D022f
8cba  a9 38      	LDA	#$38	; 56 8
8cbc  8d 07 d4   	STA	Dd407
8cbf  a9 03      	LDA	#$03	; 3 .
8cc1  8d 1d d0   	STA	Dd01d
8cc4  a9 00      	LDA	#$00	; 0 .
8cc6  8d a4 37   	STA	D37a4
8cc9  20 ff 8c   	JSR	S8cff
8ccc  a2 70      	LDX	#$70	; 112 p
8cce  a9 0c      	LDA	#$0c	; 12 .
8cd0  9d 42 03   	STA	D0342,X
8cd3  20 56 e4   	JSR	Se456
8cd6  a2 70      	LDX	#$70	; 112 p
8cd8  a9 03      	LDA	#$03	; 3 .
8cda  9d 42 03   	STA	D0342,X
8cdd  a9 ff      	LDA	#$ff	; 255 .
8cdf  9d 44 03   	STA	D0344,X
8ce2  a9 86      	LDA	#$86	; 134 .
8ce4  9d 45 03   	STA	D0345,X
8ce7  a9 04      	LDA	#$04	; 4 .
8ce9  9d 4a 03   	STA	D034a,X
8cec  a9 00      	LDA	#$00	; 0 .
8cee  9d 4b 03   	STA	D034b,X
8cf1  4c 56 e4   	JMP	Se456

8cf4  a2 00      S8cf4:	LDX	#$00	; 0 .
8cf6  ad c1 37   	LDA	D37c1
8cf9  a8         	TAY
8cfa  18         	CLC
8cfb  69 0f      	ADC	#$0f	; 15 .
8cfd  d0 0c      	BNE	L8d0b

8cff  20 91 b3   S8cff:	JSR	Sb391
8d02  20 04 85   	JSR	S8504
8d05  a2 40      	LDX	#$40	; 64 @
8d07  a0 38      	LDY	#$38	; 56 8
8d09  a9 3c      	LDA	#$3c	; 60 <
8d0b  85 88      L8d0b:	STA	Z88
8d0d  86 89      	STX	Z89
8d0f  84 8a      	STY	Z8a
8d11  a9 00      	LDA	#$00	; 0 .
8d13  85 87      	STA	Z87
8d15  a9 00      L8d15:	LDA	#$00	; 0 .
8d17  20 41 a2   	JSR	Sa241
8d1a  a5 88      	LDA	Z88
8d1c  c5 8a      	CMP	Z8a
8d1e  d0 f5      	BNE	L8d15
8d20  60         	RTS
8d21             	.byte	$a5,$93,$85,$89,$a5,$94,$85,$8a	; "........"
8d29             	.byte	$20,$66,$82,$a0,$00,$b1,$89,$60	; " f.....`"

8d31  20 38 8d   S8d31:	JSR	S8d38

8d34  a2 8f      S8d34:	LDX	#$8f	; 143 .
8d36  d0 0e      	BNE	L8d46

8d38  a2 8d      S8d38:	LDX	#$8d	; 141 .
8d3a  d0 0a      	BNE	L8d46

8d3c  a2 87      S8d3c:	LDX	#$87	; 135 .
8d3e  d0 06      	BNE	L8d46

8d40  a2 89      S8d40:	LDX	#$89	; 137 .
8d42  d0 02      	BNE	L8d46

8d44  a2 8b      S8d44:	LDX	#$8b	; 139 .
8d46  b5 0a      L8d46:	LDA	Z0a,X
8d48  85 bf      	STA	Zbf
8d4a  b5 0b      	LDA	Z0b,X
8d4c  85 c0      	STA	Zc0
8d4e  a0 01      	LDY	#$01	; 1 .
8d50  b1 bf      	LDA	(Zbf),Y
8d52  95 00      	STA	Z00,X
8d54  c8         	INY
8d55  b1 bf      	LDA	(Zbf),Y
8d57  95 01      	STA	Z01,X
8d59  c8         	INY
8d5a  b1 bf      	LDA	(Zbf),Y
8d5c  95 0a      	STA	Z0a,X
8d5e  c8         	INY
8d5f  b1 bf      	LDA	(Zbf),Y
8d61  95 0b      	STA	Z0b,X

8d63  e6 a9      S8d63:	INC	Za9
8d65  d0 02      	BNE	L8d69
8d67  e6 aa      	INC	Zaa
8d69  a0 03      L8d69:	LDY	#$03	; 3 .
8d6b  a5 85      	LDA	Z85
8d6d  91 bf      	STA	(Zbf),Y
8d6f  c8         	INY
8d70  a5 86      	LDA	Z86
8d72  91 bf      	STA	(Zbf),Y
8d74  a5 bf      	LDA	Zbf
8d76  85 85      	STA	Z85
8d78  a5 c0      	LDA	Zc0
8d7a  85 86      	STA	Z86
8d7c  60         	RTS

8d7d  68         S8d7d:	PLA
8d7e  85 87      	STA	Z87
8d80  68         	PLA
8d81  85 88      	STA	Z88
8d83  20 33 a2   	JSR	Sa233
8d86  20 2f a2   	JSR	Sa22f
8d89  48         	PHA
8d8a  a0 00      	LDY	#$00	; 0 .
8d8c  b1 87      	LDA	(Z87),Y
8d8e  48         	PHA
8d8f  4c 96 8d   	JMP	L8d96

8d92  84 87      S8d92:	STY	Z87
8d94  86 88      	STX	Z88
8d96  20 ab 8d   L8d96:	JSR	S8dab
8d99  a0 00      	LDY	#$00	; 0 .
8d9b  a9 24      	LDA	#$24	; 36 $
8d9d  91 91      	STA	(Z91),Y
8d9f  60         	RTS

8da0  20 a7 8d   S8da0:	JSR	S8da7
8da3  a9 8d      	LDA	#$8d	; 141 .
8da5  d0 0e      	BNE	L8db5

8da7  a9 8f      S8da7:	LDA	#$8f	; 143 .
8da9  d0 0a      	BNE	L8db5

8dab  a9 87      S8dab:	LDA	#$87	; 135 .
8dad  d0 06      	BNE	L8db5

8daf  a9 89      S8daf:	LDA	#$89	; 137 .
8db1  d0 02      	BNE	L8db5

8db3  a9 8b      S8db3:	LDA	#$8b	; 139 .
8db5  48         L8db5:	PHA
8db6  20 fb 8f   	JSR	S8ffb
8db9  68         	PLA
8dba  aa         	TAX
8dbb  a0 01      	LDY	#$01	; 1 .
8dbd  b5 00      	LDA	Z00,X
8dbf  91 bf      	STA	(Zbf),Y
8dc1  c8         	INY
8dc2  b5 01      	LDA	Z01,X
8dc4  91 bf      	STA	(Zbf),Y
8dc6  c8         	INY
8dc7  b5 0a      	LDA	Z0a,X
8dc9  91 bf      	STA	(Zbf),Y
8dcb  c8         	INY
8dcc  b5 0b      	LDA	Z0b,X
8dce  91 bf      	STA	(Zbf),Y
8dd0  a5 bf      	LDA	Zbf
8dd2  95 0a      	STA	Z0a,X
8dd4  a5 c0      	LDA	Zc0
8dd6  95 0b      	STA	Z0b,X
8dd8  60         	RTS
8dd9  a0 02      L8dd9:	LDY	#$02	; 2 .
8ddb  b1 91      	LDA	(Z91),Y
8ddd  48         	PHA
8dde  88         	DEY
8ddf  b1 91      	LDA	(Z91),Y
8de1  48         	PHA
8de2  a5 91      	LDA	Z91
8de4  85 bf      	STA	Zbf
8de6  a5 92      	LDA	Z92
8de8  85 c0      	STA	Zc0
8dea  a0 03      	LDY	#$03	; 3 .
8dec  b1 91      	LDA	(Z91),Y
8dee  aa         	TAX
8def  c8         	INY
8df0  b1 91      	LDA	(Z91),Y
8df2  86 91      	STX	Z91
8df4  85 92      	STA	Z92
8df6  4c 63 8d   	JMP	S8d63
8df9             	.byte	$20,$39,$8e,$f0,$3a,$4c,$bd,$87	; " 9..:L.."
8e01             	.byte	$20,$39,$8e,$a5,$89,$c9,$23,$d0	; " 9....#."
8e09             	.byte	$06,$a5,$8a,$c9,$31,$f0,$10,$a5	; "....1..."
8e11             	.byte	$89,$c9,$28,$d0,$06,$a5,$8a,$c9	; "..(....."
8e19             	.byte	$31,$f0,$02,$38,$60,$a9,$01,$18	; "1..8`..."
8e21             	.byte	$60                     	; "`"

8e22  a0 00      S8e22:	LDY	#$00	; 0 .
8e24  b1 89      	LDA	(Z89),Y
8e26  c9 01      	CMP	#$01	; 1 .
8e28  f0 0e      	BEQ	L8e38

8e2a  c9 14      S8e2a:	CMP	#$14	; 20 .
8e2c  f0 0a      	BEQ	L8e38
8e2e  c9 12      	CMP	#$12	; 18 .
8e30  f0 06      	BEQ	L8e38
8e32  c9 13      	CMP	#$13	; 19 .
8e34  f0 02      	BEQ	L8e38
8e36  c9 11      	CMP	#$11	; 17 .
8e38  60         L8e38:	RTS
8e39             	.byte	$20,$40,$8d               	; " @."

8e3c  20 22 8e   S8e3c:	JSR	S8e22
8e3f  f0 24      	BEQ	L8e65
8e41  20 ab 8d   	JSR	S8dab
8e44  20 bf 8e   	JSR	S8ebf
8e47  d0 1f      	BNE	L8e68
8e49  20 a3 83   	JSR	S83a3
8e4c  20 a5 94   	JSR	S94a5
8e4f  f0 0e      	BEQ	L8e5f
8e51  20 40 83   	JSR	S8340
8e54  20 2c 8f   	JSR	S8f2c
8e57  20 6e 94   	JSR	S946e
8e5a  f0 03      	BEQ	L8e5f
8e5c  20 c6 94   	JSR	S94c6
8e5f  20 25 83   L8e5f:	JSR	S8325
8e62  20 3c 8d   	JSR	S8d3c
8e65  a9 00      L8e65:	LDA	#$00	; 0 .
8e67  60         	RTS
8e68  20 3c 8d   L8e68:	JSR	S8d3c
8e6b  a9 ff      	LDA	#$ff	; 255 .
8e6d  60         	RTS
8e6e             	.byte	$20,$74,$8e,$d0,$3c,$60,$20,$21	; " t..<` !"
8e76             	.byte	$8d,$4c,$81,$8e,$20,$40,$8d,$a0	; ".L.. @.."
8e7e             	.byte	$00,$b1,$89               	; "..."

8e81  c9 05      S8e81:	CMP	#$05	; 5 .
8e83  f0 06      	BEQ	L8e8b
8e85  c9 04      	CMP	#$04	; 4 .
8e87  f0 02      	BEQ	L8e8b
8e89  c9 06      	CMP	#$06	; 6 .
8e8b  60         L8e8b:	RTS
8e8c             	.byte	$20,$7a,$8e,$d0,$1e,$60,$20,$7a	; " z...` z"
8e94             	.byte	$8e,$f0,$02,$a5,$8a,$60,$20,$92	; ".....` ."
8e9c             	.byte	$8e,$d0,$10,$60,$20,$7a,$8e,$f0	; "...` z.."
8ea4             	.byte	$04,$a5,$8a,$f0,$06,$60,$20,$92	; ".....` ."
8eac             	.byte	$8e,$f0,$03,$4c,$bd,$87,$4c,$64	; "...L..Ld"
8eb4             	.byte	$83                     	; "."

8eb5  a0 00      S8eb5:	LDY	#$00	; 0 .
8eb7  b1 89      	LDA	(Z89),Y
8eb9  c9 31      	CMP	#$31	; 49 1
8ebb  60         	RTS
8ebc             	.byte	$20,$40,$8d               	; " @."

8ebf  20 cb 8e   S8ebf:	JSR	S8ecb
8ec2  d0 37      	BNE	L8efb
8ec4  20 b5 8e   	JSR	S8eb5
8ec7  f0 21      	BEQ	L8eea
8ec9  d0 2e      	BNE	L8ef9

8ecb  a5 8a      S8ecb:	LDA	Z8a
8ecd  f0 1b      	BEQ	L8eea
8ecf  20 b5 8e   	JSR	S8eb5
8ed2  f0 25      	BEQ	L8ef9
8ed4  c9 23      	CMP	#$23	; 35 #
8ed6  f0 21      	BEQ	L8ef9
8ed8  c9 24      	CMP	#$24	; 36 $
8eda  f0 1d      	BEQ	L8ef9
8edc  c9 01      	CMP	#$01	; 1 .
8ede  d0 06      	BNE	L8ee6
8ee0  20 6a 82   	JSR	S826a
8ee3  4c f9 8e   	JMP	L8ef9
8ee6  c9 05      L8ee6:	CMP	#$05	; 5 .
8ee8  d0 03      	BNE	L8eed
8eea  a9 01      L8eea:	LDA	#$01	; 1 .
8eec  60         	RTS
8eed  20 b3 8d   L8eed:	JSR	S8db3
8ef0  20 2c 8f   	JSR	S8f2c
8ef3  20 73 95   	JSR	S9573
8ef6  20 44 8d   	JSR	S8d44
8ef9  a9 00      L8ef9:	LDA	#$00	; 0 .
8efb  60         L8efb:	RTS
8efc             	.byte	$20,$bc,$8e,$f0,$fa,$20,$b5,$8e	; " .... .."
8f04             	.byte	$f0,$f5,$4c,$bd,$87,$20,$bc,$8e	; "..L.. .."
8f0c             	.byte	$f0,$ed,$20,$b5,$8e,$f0,$e8,$d0	; ".. ....."
8f14             	.byte	$08,$20,$40,$8d,$20,$bf,$8e,$f0	; ". @. ..."
8f1c             	.byte	$de,$4c,$bd,$87,$20,$15,$8f,$20	; ".L.. .. "
8f24             	.byte	$a3,$83,$20,$2c,$8f,$4c,$40,$83	; ".. ,.L@."

8f2c  a9 00      S8f2c:	LDA	#$00	; 0 .
8f2e  85 b8      	STA	Zb8
8f30  85 b7      	STA	Zb7
8f32  20 af 8d   	JSR	S8daf
8f35  a5 c5      	LDA	Zc5
8f37  48         	PHA
8f38  a5 c6      	LDA	Zc6
8f3a  48         	PHA
8f3b  20 85 86   	JSR	S8685
8f3e  20 80 99   	JSR	S9980
8f41  20 2a 86   	JSR	S862a
8f44  c6 b8      	DEC	Zb8
8f46  a5 b8      	LDA	Zb8
8f48  85 b5      	STA	Zb5
8f4a  68         	PLA
8f4b  85 c6      	STA	Zc6
8f4d  68         	PLA
8f4e  85 c5      	STA	Zc5
8f50  4c 40 8d   	JMP	S8d40
8f53             	.byte	$20,$21,$8d,$20,$5f,$8f,$d0,$4f	; " !. _..O"
8f5b             	.byte	$60,$20,$40,$8d,$a0,$00,$b1,$89	; "` @....."
8f63             	.byte	$c9,$21,$f0,$14,$c9,$05,$f0,$0e	; ".!......"
8f6b             	.byte	$20,$2c,$8f,$20,$50,$95,$d0,$06	; " ,. P..."
8f73             	.byte	$20,$bf,$95,$a9,$00,$60,$a9,$01	; " ....`.."
8f7b             	.byte	$60,$20,$5c,$8f,$d0,$29,$60,$20	; "` \..)` "
8f83             	.byte	$7c,$8f,$4c,$af,$85,$20,$7c,$8f	; "|.L.. |."
8f8b             	.byte	$4c,$ab,$85,$20,$7c,$8f,$20,$af	; "L.. |. ."
8f93             	.byte	$85,$20,$d2,$d9,$b0,$11,$60,$20	; ". ....` "
8f9b             	.byte	$5c,$8f,$d0,$0b,$20,$ab,$85,$20	; "\... .. "
8fa3             	.byte	$5c,$8f,$d0,$03,$4c,$af,$85,$4c	; "\...L..L"
8fab             	.byte	$bd,$87,$48,$20,$8e,$8f,$68,$c5	; "..H ..h."
8fb3             	.byte	$d4,$90,$f4,$a5,$d5,$d0,$f0,$60	; ".......`"
8fbb             	.byte	$20,$d6,$8f,$20,$ca,$8f,$4c,$b6	; " .. ..L."
8fc3             	.byte	$dd,$20,$56,$8f,$20,$af,$85,$a5	; ". V. ..."
8fcb             	.byte	$d4,$29,$7f,$c9,$42,$b0,$01,$60	; ".)..B..`"
8fd3             	.byte	$4c,$bd,$87,$20,$53,$8f,$4c,$af	; "L.. S.L."
8fdb             	.byte	$85,$20,$53,$8f,$4c,$ab,$85   	; ". S.L.."

8fe2  a9 00      S8fe2:	LDA	#$00	; 0 .
8fe4  f0 06      	BEQ	L8fec

8fe6  a9 02      S8fe6:	LDA	#$02	; 2 .
8fe8  d0 02      	BNE	L8fec

8fea  a9 04      S8fea:	LDA	#$04	; 4 .
8fec  48         L8fec:	PHA
8fed  20 fb 8f   	JSR	S8ffb
8ff0  68         	PLA
8ff1  aa         	TAX
8ff2  a5 bf      	LDA	Zbf
8ff4  95 87      	STA	Z87,X
8ff6  a5 c0      	LDA	Zc0
8ff8  95 88      	STA	Z88,X
8ffa  60         	RTS

8ffb  a5 86      S8ffb:	LDA	Z86
8ffd  d0 0a      	BNE	L9009
8fff  20 33 90   	JSR	S9033
9002  a5 aa      	LDA	Zaa
9004  d0 03      	BNE	L9009
9006  4c 09 87   	JMP	L8709
9009  a5 85      L9009:	LDA	Z85
900b  85 bf      	STA	Zbf
900d  a5 86      	LDA	Z86
900f  85 c0      	STA	Zc0
9011  a0 03      	LDY	#$03	; 3 .
9013  b1 85      	LDA	(Z85),Y
9015  aa         	TAX
9016  c8         	INY
9017  b1 85      	LDA	(Z85),Y
9019  86 85      	STX	Z85
901b  85 86      	STA	Z86
901d  a9 00      	LDA	#$00	; 0 .
901f  a0 04      	LDY	#$04	; 4 .
9021  91 bf      L9021:	STA	(Zbf),Y
9023  88         	DEY
9024  d0 fb      	BNE	L9021
9026  a9 05      	LDA	#$05	; 5 .
9028  91 bf      	STA	(Zbf),Y
902a  a5 a9      	LDA	Za9
902c  d0 02      	BNE	L9030
902e  c6 aa      	DEC	Zaa
9030  c6 a9      L9030:	DEC	Za9
9032  60         	RTS

9033  8d b8 37   S9033:	STA	D37b8
9036  a2 05      	LDX	#$05	; 5 .
9038  b5 87      L9038:	LDA	Z87,X
903a  95 a1      	STA	Za1,X
903c  ca         	DEX
903d  10 f9      	BPL	L9038
903f  a2 17      	LDX	#$17	; 23 .
9041  b5 91      L9041:	LDA	Z91,X
9043  ca         	DEX
9044  b4 91      	LDY	Z91,X
9046  20 7f 90   	JSR	S907f
9049  10 f6      	BPL	L9041
904b  a2 2f      	LDX	#$2f	; 47 /
904d  bd d0 37   L904d:	LDA	D37d0,X
9050  ca         	DEX
9051  bc d0 37   	LDY	D37d0,X
9054  20 7f 90   	JSR	S907f
9057  10 f4      	BPL	L904d
9059  20 ed 83   	JSR	S83ed
905c  a5 bf      L905c:	LDA	Zbf
905e  85 87      	STA	Z87
9060  a5 c0      	LDA	Zc0
9062  85 88      	STA	Z88
9064  20 b3 90   	JSR	S90b3
9067  20 15 84   	JSR	S8415
906a  20 4d 84   	JSR	S844d
906d  d0 ed      	BNE	L905c
906f  20 8c 90   	JSR	S908c
9072  a2 05      	LDX	#$05	; 5 .
9074  b5 a1      L9074:	LDA	Za1,X
9076  95 87      	STA	Z87,X
9078  ca         	DEX
9079  10 f9      	BPL	L9074
907b  ce b8 37   	DEC	D37b8
907e  60         	RTS

907f  85 88      S907f:	STA	Z88
9081  84 87      	STY	Z87
9083  ca         	DEX
9084  8a         	TXA
9085  48         	PHA
9086  20 b3 90   	JSR	S90b3
9089  68         	PLA
908a  aa         	TAX
908b  60         	RTS

908c  a9 00      S908c:	LDA	#$00	; 0 .
908e  85 a9      	STA	Za9
9090  85 aa      	STA	Zaa
9092  85 85      	STA	Z85
9094  85 86      	STA	Z86
9096  85 bf      	STA	Zbf
9098  ad bc 37   	LDA	D37bc
909b  85 c0      	STA	Zc0
909d  a0 00      L909d:	LDY	#$00	; 0 .
909f  b1 bf      	LDA	(Zbf),Y
90a1  30 06      	BMI	L90a9
90a3  20 63 8d   	JSR	S8d63
90a6  4c ad 90   	JMP	L90ad
90a9  29 7f      L90a9:	AND	#$7f	; 127 .
90ab  91 bf      	STA	(Zbf),Y
90ad  20 15 84   L90ad:	JSR	S8415
90b0  d0 eb      	BNE	L909d
90b2  60         	RTS

90b3  20 5b 83   S90b3:	JSR	S835b
90b6  20 58 84   	JSR	S8458
90b9  f0 01      	BEQ	L90bc
90bb  60         L90bb:	RTS
90bc  20 c1 82   L90bc:	JSR	S82c1
90bf  a0 00      L90bf:	LDY	#$00	; 0 .
90c1  b1 87      	LDA	(Z87),Y
90c3  09 80      	ORA	#$80	; 128 .
90c5  91 87      	STA	(Z87),Y
90c7  2a         	ROL
90c8  30 55      	BMI	L911f
90ca  2a         	ROL
90cb  30 28      	BMI	L90f5
90cd  a0 01      	LDY	#$01	; 1 .
90cf  b1 87      	LDA	(Z87),Y
90d1  85 8b      	STA	Z8b
90d3  c8         	INY
90d4  b1 87      	LDA	(Z87),Y
90d6  85 8c      	STA	Z8c
90d8  20 58 84   	JSR	S8458
90db  d0 18      	BNE	L90f5
90dd  a0 00      	LDY	#$00	; 0 .
90df  b1 8b      	LDA	(Z8b),Y
90e1  30 12      	BMI	L90f5
90e3  b1 87      	LDA	(Z87),Y
90e5  09 40      	ORA	#$40	; 64 @
90e7  91 87      	STA	(Z87),Y
90e9  20 e4 81   	JSR	S81e4
90ec  20 25 83   	JSR	S8325
90ef  20 e6 82   	JSR	S82e6
90f2  4c bf 90   	JMP	L90bf
90f5  a0 00      L90f5:	LDY	#$00	; 0 .
90f7  b1 87      	LDA	(Z87),Y
90f9  29 10      	AND	#$10	; 16 .
90fb  d0 22      	BNE	L911f
90fd  a0 03      	LDY	#$03	; 3 .
90ff  b1 87      	LDA	(Z87),Y
9101  85 8b      	STA	Z8b
9103  c8         	INY
9104  b1 87      	LDA	(Z87),Y
9106  85 8c      	STA	Z8c
9108  20 58 84   	JSR	S8458
910b  d0 12      	BNE	L911f
910d  a0 00      	LDY	#$00	; 0 .
910f  b1 8b      	LDA	(Z8b),Y
9111  30 0c      	BMI	L911f
9113  20 e8 81   	JSR	S81e8
9116  20 25 83   	JSR	S8325
9119  20 e6 82   	JSR	S82e6
911c  4c bf 90   	JMP	L90bf
911f  a5 8a      L911f:	LDA	Z8a
9121  f0 98      	BEQ	L90bb
9123  20 64 83   	JSR	S8364
9126  a0 00      	LDY	#$00	; 0 .
9128  b1 8b      	LDA	(Z8b),Y
912a  29 40      	AND	#$40	; 64 @
912c  d0 0c      	BNE	L913a
912e  20 6d 82   	JSR	S826d
9131  20 36 82   	JSR	S8236
9134  20 e6 82   	JSR	S82e6
9137  4c 1f 91   	JMP	L911f
913a  b1 8b      L913a:	LDA	(Z8b),Y
913c  29 bf      	AND	#$bf	; 191 .
913e  91 8b      	STA	(Z8b),Y
9140  20 66 82   	JSR	S8266
9143  20 32 82   	JSR	S8232
9146  20 e6 82   	JSR	S82e6
9149  4c f5 90   	JMP	L90f5
914c             	.byte	$a2,$05,$b5,$87,$9d,$10,$01,$ca	; "........"
9154             	.byte	$10,$f8,$a2,$38,$b5,$c7,$9d,$16	; "...8...."
915c             	.byte	$01,$ca,$10,$f8,$a2,$1f,$bd,$e0	; "........"
9164             	.byte	$05,$9d,$4f,$01,$ca,$10,$f7,$60	; "..O....`"
916c             	.byte	$a2,$05,$bd,$10,$01,$95,$87,$ca	; "........"
9174             	.byte	$10,$f8,$a2,$38,$bd,$16,$01,$95	; "...8...."
917c             	.byte	$c7,$ca,$10,$f8,$a2,$1f,$bd,$4f	; ".......O"
9184             	.byte	$01,$9d,$e0,$05,$ca,$10,$f7,$60	; ".......`"
918c             	.byte	$ad,$9c,$37,$f0,$36,$ee,$9c,$37	; "..7.6..7"
9194             	.byte	$d8,$20,$4c,$91,$a5,$14,$29,$03	; ". L...)."
919c             	.byte	$a8,$20,$94,$b6,$20,$ea,$91,$ad	; ". .. ..."
91a4             	.byte	$a4,$37,$c9,$01,$d0,$11,$ad,$c8	; ".7......"
91ac             	.byte	$37,$2d,$b8,$37,$f0,$09,$ee,$bb	; "7-.7...."
91b4             	.byte	$37,$20,$4a,$93,$20,$18,$93,$20	; "7 J. .. "
91bc             	.byte	$76,$92,$20,$9c,$bb,$20,$6c,$91	; "v. .. l."
91c4             	.byte	$ce,$9c,$37,$68,$a8,$68,$aa,$68	; "..7h.h.h"
91cc             	.byte	$40                     	; "@"
91cd  a4 d3      L91cd:	LDY	Zd3
91cf  b9 b6 04   	LDA	D04b6,Y
91d2  f0 15      	BEQ	L91e9
91d4  85 8b      	STA	Z8b
91d6  18         	CLC
91d7  a5 d2      	LDA	Zd2
91d9  69 3c      	ADC	#$3c	; 60 <
91db  85 8c      	STA	Z8c
91dd  a9 00      	LDA	#$00	; 0 .
91df  99 b6 04   	STA	D04b6,Y
91e2  a0 10      	LDY	#$10	; 16 .
91e4  91 8b      L91e4:	STA	(Z8b),Y
91e6  88         	DEY
91e7  10 fb      	BPL	L91e4
91e9  60         L91e9:	RTS
91ea             	.byte	$20,$cd,$91,$a4,$d3,$b9,$b2,$04	; " ......."
91f2             	.byte	$29,$0f,$c9,$01,$d0,$7d,$b9,$b5	; ")....}.."
91fa             	.byte	$04,$c9,$ff,$f0,$76,$0a,$69,$19	; "....v.i."
9202             	.byte	$85,$8b,$99,$b6,$04,$18,$a5,$d2	; "........"
920a             	.byte	$69,$3c,$85,$8c,$b9,$b4,$04,$c9	; "i<......"
9212             	.byte	$ff,$f0,$60,$69,$2d,$a4,$d2,$99	; "..`i-..."
921a             	.byte	$00,$d0,$a4,$d3,$be,$b7,$04,$30	; ".......0"
9222             	.byte	$3d,$e0,$07,$90,$0b,$e0,$12,$90	; "=......."
922a             	.byte	$1e,$8a,$38,$e9,$12,$4c,$36,$92	; "..8..L6."
9232             	.byte	$18,$8a,$69,$06,$0a,$0a,$0a,$0a	; "..i....."
923a             	.byte	$aa,$a0,$00,$bd,$00,$80,$91,$8b	; "........"
9242             	.byte	$e8,$c8,$c0,$10,$d0,$f5,$60,$8a	; "......`."
924a             	.byte	$49,$ff,$18,$69,$13,$0a,$0a,$0a	; "I..i...."
9252             	.byte	$0a,$aa,$a0,$0f,$bd,$00,$80,$91	; "........"
925a             	.byte	$8b,$e8,$88,$10,$f7,$60,$8a,$49	; ".....`.I"
9262             	.byte	$ff,$0a,$0a,$0a,$0a,$aa,$a0,$00	; "........"
926a             	.byte	$bd,$00,$36,$91,$8b,$e8,$c8,$c0	; "..6....."
9272             	.byte	$10,$d0,$f5,$60,$ad,$0f,$d2,$29	; "...`...)"
927a             	.byte	$04,$f0,$08,$a9,$ff,$8d,$b9,$37	; ".......7"
9282             	.byte	$4c,$ac,$92,$ad,$09,$d2,$cd,$b9	; "L......."
928a             	.byte	$37,$d0,$14,$ee,$ba,$37,$ad,$ba	; "7....7.."
9292             	.byte	$37,$c9,$30,$90,$15,$29,$03,$d0	; "7.0..).."
929a             	.byte	$11,$20,$cd,$92,$4c,$ac,$92,$8d	; ". ..L..."
92a2             	.byte	$b9,$37,$20,$cd,$92,$a9,$00,$8d	; ".7 ....."
92aa             	.byte	$ba,$37,$ad,$fc,$02,$c9,$ff,$d0	; ".7......"
92b2             	.byte	$19,$ae,$b1,$37,$ec,$b0,$37,$f0	; "...7..7."
92ba             	.byte	$11,$bd,$00,$01,$8d,$fc,$02,$ee	; "........"
92c2             	.byte	$b1,$37,$ad,$b1,$37,$29,$0f,$8d	; ".7..7).."
92ca             	.byte	$b1,$37,$60,$a2,$00,$86,$4d,$ad	; ".7`...M."
92d2             	.byte	$b9,$37,$c9,$ad,$d0,$03,$4c,$91	; ".7....L."
92da             	.byte	$b3,$ac,$a4,$37,$c9,$be,$d0,$07	; "...7...."
92e2             	.byte	$c0,$00,$f0,$31,$4c,$65,$b3,$c9	; "...1Le.."
92ea             	.byte	$b8,$d0,$07,$c0,$00,$f0,$26,$4c	; "......&L"
92f2             	.byte	$2b,$b3,$c9,$9f,$d0,$09,$ad,$ff	; "+......."
92fa             	.byte	$02,$45,$ff,$8d,$ff,$02,$60,$c9	; ".E....`."
9302             	.byte	$bc,$f0,$12,$ac,$b0,$37,$99,$00	; ".....7.."
930a             	.byte	$01,$c8,$98,$29,$0f,$cd,$b1,$37	; "...)...7"
9312             	.byte	$f0,$03,$8d,$b0,$37,$60,$a4,$d3	; "....7`.."
931a             	.byte	$b9,$b2,$04,$30,$f8,$b9,$a4,$04	; "...0...."
9322             	.byte	$d0,$05,$b9,$9e,$04,$f0,$ee,$20	; "....... "
932a             	.byte	$31,$85,$20,$b6,$dd,$20,$41,$85	; "1. .. A."
9332             	.byte	$20,$66,$da,$20,$70,$85,$20,$35	; " f. p. 5"
933a             	.byte	$85,$20,$b6,$dd,$20,$45,$85,$20	; ". .. E. "
9342             	.byte	$66,$da,$20,$74,$85,$4c,$b5,$b9	; "f. t.L.."
934a             	.byte	$a2,$00,$ad,$bb,$37,$29,$3f,$d0	; "....7)?."
9352             	.byte	$02,$a2,$08,$8a,$0d,$05,$d0,$0a	; "........"
935a             	.byte	$0a,$0a,$0a,$0d,$04,$d0,$20,$c5	; "...... ."
9362             	.byte	$93,$d0,$02,$09,$08,$a0,$00,$20	; "....... "
936a             	.byte	$9a,$93,$a9,$00,$20,$ad,$93,$d0	; ".... ..."
9372             	.byte	$02,$a9,$08,$0d,$07,$d0,$0a,$0a	; "........"
937a             	.byte	$0a,$0a,$0d,$06,$d0,$a0,$01,$20	; "....... "
9382             	.byte	$9a,$93,$ad,$0d,$d0,$6a,$ad,$0e	; ".....j.."
938a             	.byte	$d0,$2a,$0a,$0a,$0a,$0d,$0f,$d0	; ".*......"
9392             	.byte	$c8,$20,$9a,$93,$8d,$1e,$d0,$60	; ". .....`"
939a             	.byte	$be,$cc,$37,$99,$cc,$37,$8a,$49	; "..7..7.I"
93a2             	.byte	$ff,$39,$cc,$37,$19,$c9,$37,$99	; ".9.7..7."
93aa             	.byte	$c9,$37,$60,$48,$a0,$03,$a2,$00	; ".7`H...."
93b2             	.byte	$b9,$78,$02,$d9,$c2,$37,$f0,$05	; ".x...7.."
93ba             	.byte	$a2,$ff,$99,$c2,$37,$88,$10,$f0	; "....7..."
93c2             	.byte	$68,$e8,$60,$48,$a9,$01,$a2,$0b	; "h.`H...."
93ca             	.byte	$3d,$7c,$02,$ca,$10,$fa,$aa,$ca	; "=|......"
93d2             	.byte	$68,$e8,$60,$48,$8a,$48,$ad,$83	; "h.`H.H.."
93da             	.byte	$37,$45,$4f,$25,$4e,$aa,$ad,$84	; "7EO%N..."
93e2             	.byte	$37,$45,$4f,$25,$4e,$8d,$0a,$d4	; "7EO%N..."
93ea             	.byte	$8e,$17,$d0,$8d,$18,$d0,$8d,$12	; "........"
93f2             	.byte	$d0,$8d,$13,$d0,$8d,$14,$d0,$8d	; "........"
93fa             	.byte	$15,$d0,$68,$aa,$68,$40,$48,$a9	; "..h.h@H."
9402             	.byte	$c0,$8d,$0e,$d4,$ad,$c5,$02,$8d	; "........"
940a             	.byte	$17,$d0,$ad,$c6,$02,$8d,$18,$d0	; "........"
9412             	.byte	$ad,$c0,$02,$8d,$12,$d0,$ad,$c1	; "........"
941a             	.byte	$02,$8d,$13,$d0,$ad,$c2,$02,$8d	; "........"
9422             	.byte	$14,$d0,$ad,$c3,$02,$8d,$15,$d0	; "........"
942a             	.byte	$68,$4c,$5f,$e4            	; "hL_."

942e  a9 00      S942e:	LDA	#$00	; 0 .
9430  a2 2f      	LDX	#$2f	; 47 /
9432  9d d0 37   L9432:	STA	D37d0,X
9435  ca         	DEX
9436  10 fa      	BPL	L9432
9438  60         	RTS

9439  a2 20      S9439:	LDX	#$20	; 32  
943b  a0 7f      L943b:	LDY	#$7f	; 127 .
943d  8c 1f d0   L943d:	STY	Dd01f
9440  8d 0a d4   	STA	Dd40a
9443  88         	DEY
9444  10 f7      	BPL	L943d
9446  ca         	DEX
9447  10 f2      	BPL	L943b
9449  60         	RTS

944a  20 6d 83   S944a:	JSR	S836d
944d  a0 00      L944d:	LDY	#$00	; 0 .
944f  b1 89      	LDA	(Z89),Y
9451  d1 8b      	CMP	(Z8b),Y
9453  d0 18      	BNE	L946d
9455  c8         	INY
9456  b1 89      	LDA	(Z89),Y
9458  d1 8b      	CMP	(Z8b),Y
945a  d0 11      	BNE	L946d
945c  c8         	INY
945d  b1 89      	LDA	(Z89),Y
945f  d1 8b      	CMP	(Z8b),Y
9461  d0 0a      	BNE	L946d
9463  20 81 82   	JSR	S8281
9466  20 6d 82   	JSR	S826d
9469  d0 e2      	BNE	L944d
946b  a5 8c      	LDA	Z8c
946d  60         L946d:	RTS

946e  20 ff 83   S946e:	JSR	S83ff
9471  20 5b 83   L9471:	JSR	S835b
9474  20 81 82   	JSR	S8281
9477  a6 b7      	LDX	Zb7
9479  20 08 84   L9479:	JSR	S8408
947c  a0 00      	LDY	#$00	; 0 .
947e  b1 8b      	LDA	(Z8b),Y
9480  30 0c      	BMI	L948e
9482  dd 00 06   	CMP	D0600,X
9485  d0 13      	BNE	L949a
9487  e8         	INX
9488  e4 b5      	CPX	Zb5
948a  d0 ed      	BNE	L9479
948c  f0 0c      	BEQ	L949a
948e  29 7f      L948e:	AND	#$7f	; 127 .
9490  dd 00 06   	CMP	D0600,X
9493  d0 05      	BNE	L949a
9495  e8         	INX
9496  e4 b5      	CPX	Zb5
9498  f0 0a      	BEQ	L94a4
949a  20 11 84   L949a:	JSR	S8411
949d  20 42 84   	JSR	S8442
94a0  d0 cf      	BNE	L9471
94a2  a9 01      	LDA	#$01	; 1 .
94a4  60         L94a4:	RTS

94a5  20 0a 83   S94a5:	JSR	S830a
94a8  f0 13      	BEQ	L94bd
94aa  20 25 83   L94aa:	JSR	S8325
94ad  20 66 82   	JSR	S8266
94b0  20 6a 82   	JSR	S826a
94b3  20 4a 94   	JSR	S944a
94b6  f0 08      	BEQ	L94c0
94b8  20 56 82   	JSR	S8256
94bb  d0 ed      	BNE	L94aa
94bd  a9 01      L94bd:	LDA	#$01	; 1 .
94bf  60         	RTS
94c0  20 52 82   L94c0:	JSR	S8252
94c3  a9 00      	LDA	#$00	; 0 .
94c5  60         	RTS

94c6  20 e6 8f   S94c6:	JSR	S8fe6
94c9  20 ea 8f   	JSR	S8fea
94cc  20 46 82   	JSR	S8246
94cf  a9 01      	LDA	#$01	; 1 .
94d1  a0 00      	LDY	#$00	; 0 .
94d3  91 8b      	STA	(Z8b),Y
94d5  c8         	INY
94d6  a9 00      	LDA	#$00	; 0 .
94d8  91 89      	STA	(Z89),Y
94da  91 8b      	STA	(Z8b),Y
94dc  c8         	INY
94dd  a9 31      	LDA	#$31	; 49 1
94df  91 89      	STA	(Z89),Y
94e1  91 8b      	STA	(Z8b),Y
94e3  c8         	INY
94e4  a5 9d      	LDA	Z9d
94e6  91 89      	STA	(Z89),Y
94e8  c8         	INY
94e9  a5 9e      	LDA	Z9e
94eb  91 89      	STA	(Z89),Y
94ed  20 e2 8f   	JSR	S8fe2
94f0  20 f4 81   	JSR	S81f4
94f3  a0 03      	LDY	#$03	; 3 .
94f5  a5 9f      	LDA	Z9f
94f7  91 87      	STA	(Z87),Y
94f9  c8         	INY
94fa  a5 a0      	LDA	Za0
94fc  91 87      	STA	(Z87),Y
94fe  20 88 83   	JSR	S8388
9501  4c e6 82   	JMP	S82e6

9504  a6 b5      S9504:	LDX	Zb5
9506  86 b7      	STX	Zb7
9508  bd 00 06   	LDA	D0600,X
950b  20 8a 97   	JSR	S978a
950e  f0 1d      	BEQ	L952d
9510  20 3d 95   L9510:	JSR	S953d
9513  f0 1f      	BEQ	L9534
9515  c9 5c      	CMP	#$5c	; 92 \
9517  d0 14      	BNE	L952d
9519  8a         	TXA
951a  a8         	TAY
951b  b9 01 06   L951b:	LDA	D0601,Y
951e  99 00 06   	STA	D0600,Y
9521  c8         	INY
9522  c0 6d      	CPY	#$6d	; 109 m
9524  d0 f5      	BNE	L951b
9526  bd 00 06   	LDA	D0600,X
9529  c9 9b      	CMP	#$9b	; 155 .
952b  f0 07      	BEQ	L9534
952d  e8         L952d:	INX
952e  bd 00 06   	LDA	D0600,X
9531  4c 10 95   	JMP	L9510
9534  86 b5      L9534:	STX	Zb5
9536  e4 b7      	CPX	Zb7
9538  60         L9538:	RTS

9539  c9 5c      S9539:	CMP	#$5c	; 92 \
953b  f0 fb      	BEQ	L9538

953d  c9 9b      S953d:	CMP	#$9b	; 155 .
953f  f0 f7      	BEQ	L9538
9541  c9 20      	CMP	#$20	; 32  
9543  f0 f3      	BEQ	L9538
9545  c9 5d      	CMP	#$5d	; 93 ]
9547  f0 ef      	BEQ	L9538
9549  c9 5b      	CMP	#$5b	; 91 [
954b  f0 eb      	BEQ	L9538
954d  4c 8a 97   	JMP	S978a

9550  a9 06      S9550:	LDA	#$06	; 6 .
9552  85 f4      	STA	Zf4
9554  a2 00      	LDX	#$00	; 0 .
9556  86 f3      	STX	Zf3
9558  a6 b7      	LDX	Zb7
955a  86 f2      	STX	Zf2
955c  20 00 d8   	JSR	Sd800
955f  b0 0f      	BCS	L9570
9561  a6 f2      	LDX	Zf2
9563  bd 00 06   	LDA	D0600,X
9566  20 3d 95   	JSR	S953d
9569  d0 05      	BNE	L9570
956b  86 b5      	STX	Zb5
956d  a9 00      	LDA	#$00	; 0 .
956f  60         	RTS
9570  a9 ff      L9570:	LDA	#$ff	; 255 .
9572  60         	RTS

9573  38         S9573:	SEC
9574  a5 b5      	LDA	Zb5
9576  e5 b7      	SBC	Zb7
9578  f0 39      	BEQ	L95b3
957a  4a         	LSR
957b  48         	PHA
957c  b0 0c      	BCS	L958a
957e  20 f1 95   	JSR	S95f1
9581  20 25 83   	JSR	S8325
9584  20 a3 83   	JSR	S83a3
9587  4c ab 95   	JMP	L95ab
958a  20 e6 8f   L958a:	JSR	S8fe6
958d  a0 00      	LDY	#$00	; 0 .
958f  a9 23      	LDA	#$23	; 35 #
9591  91 89      	STA	(Z89),Y
9593  c8         	INY
9594  20 e9 95   	JSR	S95e9
9597  91 89      	STA	(Z89),Y
9599  20 a3 83   	JSR	S83a3
959c  68         	PLA
959d  a8         	TAY
959e  f0 10      	BEQ	L95b0
95a0  98         L95a0:	TYA
95a1  48         	PHA
95a2  20 f1 95   	JSR	S95f1
95a5  20 16 82   	JSR	S8216
95a8  20 25 83   	JSR	S8325
95ab  68         L95ab:	PLA
95ac  a8         	TAY
95ad  88         	DEY
95ae  d0 f0      	BNE	L95a0
95b0  4c 40 83   L95b0:	JMP	S8340
95b3  20 e6 8f   L95b3:	JSR	S8fe6
95b6  a0 00      	LDY	#$00	; 0 .
95b8  a9 31      	LDA	#$31	; 49 1
95ba  91 89      	STA	(Z89),Y
95bc  4c a3 83   	JMP	S83a3

95bf  20 e2 8f   S95bf:	JSR	S8fe2
95c2  20 e6 8f   	JSR	S8fe6
95c5  20 16 82   	JSR	S8216
95c8  a0 00      	LDY	#$00	; 0 .
95ca  a9 21      	LDA	#$21	; 33 !
95cc  91 89      	STA	(Z89),Y
95ce  a9 32      	LDA	#$32	; 50 2
95d0  91 87      	STA	(Z87),Y
95d2  c8         	INY
95d3  a5 d4      	LDA	Zd4
95d5  91 89      	STA	(Z89),Y
95d7  c8         	INY
95d8  a5 d5      	LDA	Zd5
95da  91 89      	STA	(Z89),Y
95dc  a0 01      	LDY	#$01	; 1 .
95de  a2 fc      	LDX	#$fc	; 252 .
95e0  b5 da      L95e0:	LDA	Zda,X
95e2  91 87      	STA	(Z87),Y
95e4  c8         	INY
95e5  e8         	INX
95e6  d0 f8      	BNE	L95e0
95e8  60         	RTS

95e9  a6 b7      S95e9:	LDX	Zb7
95eb  bd 00 06   	LDA	D0600,X
95ee  e6 b7      	INC	Zb7
95f0  60         	RTS

95f1  20 e2 8f   S95f1:	JSR	S8fe2
95f4  a0 00      	LDY	#$00	; 0 .
95f6  a9 24      	LDA	#$24	; 36 $
95f8  91 87      	STA	(Z87),Y
95fa  c8         	INY
95fb  20 e9 95   	JSR	S95e9
95fe  91 87      	STA	(Z87),Y
9600  c8         	INY
9601  20 e9 95   	JSR	S95e9
9604  91 87      	STA	(Z87),Y
9606  60         	RTS
9607             	.byte	$a2,$30,$d0,$06,$a2,$20,$d0,$02	; ".0... .."
960f             	.byte	$a2,$60,$a9,$03,$9d,$42,$03,$a9	; ".`...B.."
9617             	.byte	$00,$9d,$44,$03,$a9,$06,$9d,$45	; "..D....E"
961f             	.byte	$03,$a5,$bc,$9d,$4a,$03,$a9,$00	; "....J..."
9627             	.byte	$9d,$4b,$03,$20,$56,$e4,$10,$14	; ".K. V..."
962f             	.byte	$20,$4e,$96,$c0,$a5,$d0,$03,$4c	; " N.....L"
9637             	.byte	$34,$88,$c0,$aa,$d0,$03,$4c,$4b	; "4.....LK"
963f             	.byte	$88,$4c,$5e,$88,$60,$a2,$30,$d0	; ".L^.`.0."
9647             	.byte	$06,$a2,$20,$d0,$02         	; ".. .."

964c  a2 60      S964c:	LDX	#$60	; 96 `
964e  a9 0c      	LDA	#$0c	; 12 .
9650  9d 42 03   	STA	D0342,X
9653  4c 56 e4   	JMP	Se456

9656  6c c3 00   S9656:	JMP	(Zc3)
9659             	.byte	$a5,$b3,$c5,$b1,$d0,$06,$a5,$b4	; "........"
9661             	.byte	$c5,$b2,$f0,$10,$a0,$00,$b1,$b3	; "........"
9669             	.byte	$8d,$86,$37,$e6,$b3,$d0,$02,$e6	; "..7....."
9671             	.byte	$b4,$a9,$00,$60,$a9,$ff,$60,$a2	; "...`..`."
9679             	.byte	$30,$d0,$06,$a2,$60,$d0,$02,$a2	; "0...`..."
9681             	.byte	$70,$a9,$07,$9d,$42,$03,$a9,$86	; "p...B..."
9689             	.byte	$9d,$44,$03,$a9,$37,$9d,$45,$03	; ".D..7.E."
9691             	.byte	$a9,$01,$9d,$48,$03,$a9,$00,$9d	; "...H...."
9699             	.byte	$49,$03,$4c,$56,$e4,$ad,$c8,$37	; "I.LV...7"
96a1             	.byte	$f0,$14,$20,$48,$86,$d0,$06,$20	; ".. H... "
96a9             	.byte	$b5,$a3,$a9,$00,$60,$a9,$00,$85	; "....`..."
96b1             	.byte	$b8,$20,$56,$96,$10,$08,$a9,$ff	; ". V....."
96b9             	.byte	$60,$20,$56,$96,$30,$0d,$ad,$86	; "` V.0..."
96c1             	.byte	$37,$c9,$9b,$f0,$06,$20,$d4,$96	; "7.... .."
96c9             	.byte	$4c,$ba,$96,$a9,$9b,$20,$d4,$96	; "L.... .."
96d1             	.byte	$a9,$00,$60,$a6,$b8,$e0,$6d,$b0	; "..`...m."
96d9             	.byte	$05,$9d,$00,$06,$e6,$b8,$60   	; "......`"

96e0  a9 00      S96e0:	LDA	#$00	; 0 .
96e2  85 b5      	STA	Zb5

96e4  20 03 97   S96e4:	JSR	S9703
96e7  20 af 8d   	JSR	S8daf
96ea  a5 8a      L96ea:	LDA	Z8a
96ec  d0 01      	BNE	L96ef
96ee  60         	RTS
96ef  20 dd 82   L96ef:	JSR	S82dd
96f2  20 ab 8d   	JSR	S8dab
96f5  20 03 97   	JSR	S9703
96f8  20 3c 8d   	JSR	S8d3c
96fb  20 e8 81   	JSR	S81e8
96fe  4c ea 96   	JMP	L96ea
9701  e6 b5      L9701:	INC	Zb5

9703  a6 b5      S9703:	LDX	Zb5
9705  bd 00 06   	LDA	D0600,X
9708  c9 20      	CMP	#$20	; 32  
970a  f0 f5      	BEQ	L9701
970c  86 b7      	STX	Zb7
970e  c9 9b      	CMP	#$9b	; 155 .
9710  f0 06      	BEQ	L9718
9712  c9 5d      	CMP	#$5d	; 93 ]
9714  d0 05      	BNE	L971b
9716  e6 b5      	INC	Zb5
9718  4c c1 82   L9718:	JMP	S82c1
971b  c9 5b      L971b:	CMP	#$5b	; 91 [
971d  d0 0e      	BNE	L972d
971f  a9 05      	LDA	#$05	; 5 .
9721  48         	PHA
9722  e6 b5      	INC	Zb5
9724  20 e4 96   	JSR	S96e4
9727  20 40 8d   	JSR	S8d40
972a  4c 7c 97   	JMP	L977c
972d  20 99 97   L972d:	JSR	S9799
9730  f0 20      	BEQ	L9752
9732  20 8a 97   	JSR	S978a
9735  d0 04      	BNE	L973b
9737  e6 b5      	INC	Zb5
9739  d0 2b      	BNE	L9766
973b  a2 04      L973b:	LDX	#$04	; 4 .
973d  c9 3a      	CMP	#$3a	; 58 :
973f  f0 06      	BEQ	L9747
9741  a2 06      	LDX	#$06	; 6 .
9743  c9 22      	CMP	#$22	; 34 "
9745  d0 0b      	BNE	L9752
9747  e6 b5      L9747:	INC	Zb5
9749  8a         	TXA
974a  48         	PHA
974b  20 04 95   	JSR	S9504
974e  d0 19      	BNE	L9769
9750  f0 1c      	BEQ	L976e
9752  20 50 95   L9752:	JSR	S9550
9755  d0 0c      	BNE	L9763
9757  20 bf 95   	JSR	S95bf
975a  20 e2 8f   	JSR	S8fe2
975d  a0 00      	LDY	#$00	; 0 .
975f  a9 05      	LDA	#$05	; 5 .
9761  d0 1f      	BNE	L9782
9763  20 04 95   L9763:	JSR	S9504
9766  a9 05      L9766:	LDA	#$05	; 5 .
9768  48         	PHA
9769  20 6e 94   L9769:	JSR	S946e
976c  f0 0b      	BEQ	L9779
976e  20 73 95   L976e:	JSR	S9573
9771  20 a5 94   	JSR	S94a5
9774  f0 03      	BEQ	L9779
9776  20 c6 94   	JSR	S94c6
9779  20 25 83   L9779:	JSR	S8325
977c  20 e2 8f   L977c:	JSR	S8fe2
977f  a0 00      	LDY	#$00	; 0 .
9781  68         	PLA
9782  91 87      L9782:	STA	(Z87),Y
9784  20 e4 81   	JSR	S81e4
9787  4c 25 83   	JMP	S8325

978a  a0 00      S978a:	LDY	#$00	; 0 .
978c  d9 8f 81   L978c:	CMP	D818f,Y
978f  f0 07      	BEQ	L9798
9791  c8         	INY
9792  c0 09      	CPY	#$09	; 9 .
9794  d0 f6      	BNE	L978c
9796  a0 01      	LDY	#$01	; 1 .
9798  60         L9798:	RTS

9799  c9 2d      S9799:	CMP	#$2d	; 45 -
979b  d0 1b      	BNE	L97b8
979d  a4 b5      	LDY	Zb5
979f  f0 17      	BEQ	L97b8
97a1  88         	DEY
97a2  b9 00 06   	LDA	D0600,Y
97a5  c9 29      	CMP	#$29	; 41 )
97a7  f0 0d      	BEQ	L97b6
97a9  c9 20      	CMP	#$20	; 32  
97ab  f0 0b      	BEQ	L97b8
97ad  c9 5b      	CMP	#$5b	; 91 [
97af  f0 07      	BEQ	L97b8
97b1  20 8a 97   	JSR	S978a
97b4  f0 02      	BEQ	L97b8
97b6  a9 2d      L97b6:	LDA	#$2d	; 45 -
97b8  60         L97b8:	RTS

97b9  8d 87 37   S97b9:	STA	D3787
97bc  6c c5 00   	JMP	(Zc5)
97bf             	.byte	$a2,$60                  	; ".`"

97c1  a9 0b      S97c1:	LDA	#$0b	; 11 .
97c3  9d 42 03   	STA	D0342,X
97c6  a9 87      	LDA	#$87	; 135 .
97c8  9d 44 03   	STA	D0344,X
97cb  a9 37      	LDA	#$37	; 55 7
97cd  9d 45 03   	STA	D0345,X
97d0  a9 01      	LDA	#$01	; 1 .
97d2  9d 48 03   	STA	D0348,X
97d5  a9 00      	LDA	#$00	; 0 .
97d7  9d 49 03   	STA	D0349,X
97da  20 56 e4   	JSR	Se456
97dd  10 14      	BPL	L97f3
97df  4c 8d 88   	JMP	L888d

97e2  8d 87 37   S97e2:	STA	D3787
97e5  a2 20      	LDX	#$20	; 32  
97e7  bc 40 03   	LDY	D0340,X
97ea  c0 ff      	CPY	#$ff	; 255 .
97ec  f0 05      	BEQ	L97f3
97ee  48         	PHA
97ef  20 c1 97   	JSR	S97c1
97f2  68         	PLA
97f3  60         L97f3:	RTS
97f4             	.byte	$20,$e2,$97               	; " .."

97f7  c9 9b      S97f7:	CMP	#$9b	; 155 .
97f9  f0 16      	BEQ	L9811
97fb  a6 55      	LDX	Z55
97fd  e0 26      	CPX	#$26	; 38 &
97ff  d0 0a      	BNE	L980b
9801  48         	PHA
9802  a9 1f      	LDA	#$1f	; 31 .
9804  20 3c 98   	JSR	S983c
9807  20 24 98   	JSR	S9824
980a  68         	PLA
980b  20 3c 98   L980b:	JSR	S983c
980e  e6 55      	INC	Z55
9810  60         	RTS
9811  a9 20      L9811:	LDA	#$20	; 32  
9813  20 3c 98   	JSR	S983c
9816  a5 55      L9816:	LDA	Z55
9818  c9 27      	CMP	#$27	; 39 '
981a  f0 08      	BEQ	S9824
981c  a9 20      	LDA	#$20	; 32  
981e  20 30 98   	JSR	S9830
9821  4c 16 98   	JMP	L9816

9824  ae ff 02   S9824:	LDX	D02ff
9827  d0 fb      	BNE	S9824

9829  a9 01      S9829:	LDA	#$01	; 1 .
982b  85 55      	STA	Z55
982d  e6 54      	INC	Z54
982f  60         	RTS

9830  20 6a 98   S9830:	JSR	S986a
9833  e6 55      	INC	Z55
9835  e6 ba      	INC	Zba
9837  d0 02      	BNE	L983b
9839  e6 bb      	INC	Zbb
983b  60         L983b:	RTS

983c  48         S983c:	PHA
983d  a5 54      	LDA	Z54
983f  c9 18      	CMP	#$18	; 24 .
9841  d0 23      	BNE	L9866
9843  a9 40      	LDA	#$40	; 64 @
9845  85 87      	STA	Z87
9847  a9 38      	LDA	#$38	; 56 8
9849  85 88      	STA	Z88
984b  a0 28      L984b:	LDY	#$28	; 40 (
984d  b1 87      	LDA	(Z87),Y
984f  a0 00      	LDY	#$00	; 0 .
9851  91 87      	STA	(Z87),Y
9853  20 33 a2   	JSR	Sa233
9856  a5 87      	LDA	Z87
9858  c9 d8      	CMP	#$d8	; 216 .
985a  d0 ef      	BNE	L984b
985c  a5 88      	LDA	Z88
985e  c9 3b      	CMP	#$3b	; 59 ;
9860  d0 e9      	BNE	L984b
9862  c6 5a      	DEC	Z5a
9864  c6 54      	DEC	Z54
9866  20 81 98   L9866:	JSR	S9881
9869  68         	PLA

986a  aa         S986a:	TAX
986b  2a         	ROL
986c  2a         	ROL
986d  2a         	ROL
986e  2a         	ROL
986f  29 03      	AND	#$03	; 3 .
9871  a8         	TAY
9872  8a         	TXA
9873  29 9f      	AND	#$9f	; 159 .
9875  19 7d 98   	ORA	D987d,Y
9878  a0 00      	LDY	#$00	; 0 .
987a  91 ba      	STA	(Zba),Y
987c  60         	RTS
987d             D987d:	.byte	$40,$00,$20,$60            	; "@. `"

9881  a5 54      S9881:	LDA	Z54
9883  0a         	ASL
9884  0a         	ASL
9885  0a         	ASL
9886  a2 00      	LDX	#$00	; 0 .
9888  86 bb      	STX	Zbb
988a  85 ba      	STA	Zba
988c  06 ba      	ASL	Zba
988e  26 bb      	ROL	Zbb
9890  06 ba      	ASL	Zba
9892  26 bb      	ROL	Zbb
9894  18         	CLC
9895  65 ba      	ADC	Zba
9897  85 ba      	STA	Zba
9899  a5 bb      	LDA	Zbb
989b  69 00      	ADC	#$00	; 0 .
989d  85 bb      	STA	Zbb
989f  18         	CLC
98a0  a5 ba      	LDA	Zba
98a2  69 40      	ADC	#$40	; 64 @
98a4  85 ba      	STA	Zba
98a6  a5 bb      	LDA	Zbb
98a8  69 38      	ADC	#$38	; 56 8
98aa  85 bb      	STA	Zbb
98ac  a5 55      	LDA	Z55
98ae  18         	CLC
98af  65 ba      	ADC	Zba
98b1  85 ba      	STA	Zba
98b3  90 02      	BCC	L98b7
98b5  e6 bb      	INC	Zbb
98b7  60         L98b7:	RTS
98b8             	.byte	$4c,$d4,$96,$a5,$b2,$cd,$89,$37	; "L......7"
98c0             	.byte	$90,$0f,$d0,$0d,$a5,$b1,$cd,$88	; "........"
98c8             	.byte	$37,$90,$06,$20,$39,$94,$a9,$ff	; "7.. 9..."
98d0             	.byte	$60,$a5,$ad,$48,$a5,$ae,$48,$a0	; "`..H..H."
98d8             	.byte	$00,$b1,$ad,$48,$ad,$87,$37,$91	; "...H..7."
98e0             	.byte	$ad,$68,$8d,$87,$37,$20,$55,$a2	; ".h..7 U."
98e8             	.byte	$b0,$06,$20,$df,$a1,$4c,$d7,$98	; ".. ..L.."
98f0             	.byte	$20,$df,$a1,$ad,$87,$37,$a0,$00	; " ....7.."
98f8             	.byte	$91,$ad,$68,$85,$ae,$68,$85,$ad	; "..h..h.."
9900             	.byte	$20,$25,$a2,$a9,$00,$60      	; " %...`"

9906  68         S9906:	PLA
9907  85 89      	STA	Z89
9909  68         	PLA
990a  85 8a      	STA	Z8a
990c  20 45 a2   	JSR	Sa245
990f  20 31 99   	JSR	S9931
9912  20 45 a2   	JSR	Sa245
9915  6c 89 00   	JMP	(Z89)

9918  20 8b 86   S9918:	JSR	S868b
991b  20 64 83   	JSR	S8364
991e  68         	PLA
991f  85 89      	STA	Z89
9921  68         	PLA
9922  85 8a      	STA	Z8a
9924  20 45 a2   	JSR	Sa245
9927  20 31 99   	JSR	S9931
992a  4c a3 88   	JMP	L88a3
992d             	.byte	$84,$89,$86,$8a            	; "...."

9931  a0 00      S9931:	LDY	#$00	; 0 .
9933  b1 89      	LDA	(Z89),Y
9935  30 08      	BMI	L993f
9937  20 45 99   	JSR	S9945
993a  20 45 a2   	JSR	Sa245
993d  d0 f2      	BNE	S9931
993f  c9 9b      L993f:	CMP	#$9b	; 155 .
9941  f0 02      	BEQ	S9945
9943  29 7f      	AND	#$7f	; 127 .

9945  c9 04      S9945:	CMP	#$04	; 4 .
9947  90 03      	BCC	L994c
9949  4c b9 97   	JMP	S97b9
994c  48         L994c:	PHA
994d  20 dd 82   	JSR	S82dd
9950  20 ab 8d   	JSR	S8dab
9953  20 e6 82   	JSR	S82e6
9956  20 ab 8d   	JSR	S8dab
9959  68         	PLA
995a  c9 01      	CMP	#$01	; 1 .
995c  d0 06      	BNE	L9964
995e  20 40 8d   	JSR	S8d40
9961  4c 71 99   	JMP	L9971
9964  c9 02      L9964:	CMP	#$02	; 2 .
9966  d0 06      	BNE	L996e
9968  20 49 83   	JSR	S8349
996b  4c 71 99   	JMP	L9971
996e  20 2e 83   L996e:	JSR	S832e
9971  20 80 99   L9971:	JSR	S9980
9974  20 3c 8d   	JSR	S8d3c
9977  20 5b 83   	JSR	S835b
997a  20 3c 8d   	JSR	S8d3c
997d  4c 25 83   	JMP	S8325

9980  20 ea 8f   S9980:	JSR	S8fea
9983  20 42 82   	JSR	S8242
9986  20 2e 83   	JSR	S832e
9989  20 7d 8d   	JSR	S8d7d
998c  99 8e 60   	STA	D608e,Y
998f  a5 8a      	LDA	Z8a
9991  f0 3c      	BEQ	L99cf
9993  20 64 83   	JSR	S8364
9996  a0 00      	LDY	#$00	; 0 .
9998  b1 89      	LDA	(Z89),Y
999a  29 08      	AND	#$08	; 8 .
999c  f0 03      	BEQ	L99a1
999e  20 2a 86   	JSR	S862a
99a1  a0 00      L99a1:	LDY	#$00	; 0 .
99a3  b1 89      	LDA	(Z89),Y
99a5  29 f7      	AND	#$f7	; 247 .
99a7  c9 05      	CMP	#$05	; 5 .
99a9  f0 11      	BEQ	L99bc
99ab  c9 06      	CMP	#$06	; 6 .
99ad  d0 04      	BNE	L99b3
99af  a9 22      	LDA	#$22	; 34 "
99b1  d0 06      	BNE	L99b9
99b3  c9 04      L99b3:	CMP	#$04	; 4 .
99b5  d0 1b      	BNE	L99d2
99b7  a9 3a      	LDA	#$3a	; 58 :
99b9  20 b9 97   L99b9:	JSR	S97b9
99bc  20 7a 82   L99bc:	JSR	S827a
99bf  20 7d 8d   	JSR	S8d7d
99c2  99 d1 20   	STA	D20d1,Y
99c5  6d 82 f0   	ADC	Df082
99c8  06 20      	ASL	Z20
99ca             	.byte	$2f,$86,$4c,$8f,$99         	; "/.L.."
99cf  4c d9 8d   L99cf:	JMP	L8dd9
99d2  a0 00      L99d2:	LDY	#$00	; 0 .
99d4  b1 8b      	LDA	(Z8b),Y
99d6  29 f7      	AND	#$f7	; 247 .
99d8  c9 00      	CMP	#$00	; 0 .
99da  f0 2b      	BEQ	L9a07
99dc  c9 31      	CMP	#$31	; 49 1
99de  f0 2c      	BEQ	L9a0c
99e0  c9 23      	CMP	#$23	; 35 #
99e2  f0 1a      	BEQ	L99fe
99e4  c9 24      	CMP	#$24	; 36 $
99e6  f0 16      	BEQ	L99fe
99e8  c9 21      	CMP	#$21	; 33 !
99ea  f0 15      	BEQ	L9a01
99ec  20 81 8e   	JSR	S8e81
99ef  f0 16      	BEQ	L9a07
99f1  20 2a 8e   	JSR	S8e2a
99f4  f0 0e      	BEQ	L9a04
99f6  c9 01      	CMP	#$01	; 1 .
99f8  f0 01      	BEQ	L99fb
99fa  00         	BRK
99fb  20 7e 82   L99fb:	JSR	S827e
99fe  4c 0f 9a   L99fe:	JMP	L9a0f
9a01  4c 81 9a   L9a01:	JMP	L9a81
9a04  4c 4c 9a   L9a04:	JMP	L9a4c
9a07  20 7d 8d   L9a07:	JSR	S8d7d
9a0a  9a         	TXS
9a0b  65 4c      	ADC	Z4c
9a0d  d9 8d a0   	CMP	Da08d,Y
9a10             	.byte	$00,$b1,$8b,$c9,$31,$f0,$19,$c9	; "....1..."
9a18             	.byte	$23,$f0,$0a,$c8,$98,$48,$b1,$8b	; "#....H.."
9a20  20 33 9a   	JSR	S9a33
9a23  68         	PLA
9a24  a8         	TAY
9a25  c8         L9a25:	INY
9a26  b1 8b      	LDA	(Z8b),Y
9a28  20 33 9a   	JSR	S9a33
9a2b  20 81 82   	JSR	S8281
9a2e  d0 df      	BNE	L9a0f
9a30  4c d9 8d   L9a30:	JMP	L8dd9

9a33  20 5f 86   S9a33:	JSR	S865f
9a36  f0 11      	BEQ	L9a49
9a38  20 59 86   	JSR	S8659
9a3b  f0 0c      	BEQ	L9a49
9a3d  20 39 95   	JSR	S9539
9a40  d0 07      	BNE	L9a49
9a42  48         	PHA
9a43  a9 5c      	LDA	#$5c	; 92 \
9a45  20 b9 97   	JSR	S97b9
9a48  68         	PLA
9a49  4c b9 97   L9a49:	JMP	S97b9
9a4c  20 81 82   L9a4c:	JSR	S8281
9a4f  20 08 84   L9a4f:	JSR	S8408
9a52  a0 00      	LDY	#$00	; 0 .
9a54  b1 8b      	LDA	(Z8b),Y
9a56  30 06      	BMI	L9a5e
9a58  20 b9 97   	JSR	S97b9
9a5b  4c 4f 9a   	JMP	L9a4f
9a5e  29 7f      L9a5e:	AND	#$7f	; 127 .
9a60  20 b9 97   	JSR	S97b9
9a63  4c d9 8d   	JMP	L8dd9
9a66             	.byte	$a9,$5b,$20,$b9,$97,$20,$af,$8d	; ".[ .. .."
9a6e             	.byte	$20,$2e,$83,$20,$7d,$8d,$99,$8e	; " .. }..."
9a76             	.byte	$20,$40,$8d,$a9,$5d,$20,$b9,$97	; " @..] .."
9a7e             	.byte	$4c,$d9,$8d               	; "L.."
9a81  20 af 8d   L9a81:	JSR	S8daf
9a84  20 2e 83   	JSR	S832e
9a87  20 af 85   	JSR	S85af
9a8a  20 40 8d   	JSR	S8d40
9a8d  20 93 9a   	JSR	S9a93
9a90  4c d9 8d   	JMP	L8dd9

9a93  20 e6 d8   S9a93:	JSR	Sd8e6
9a96  a0 00      	LDY	#$00	; 0 .
9a98  98         L9a98:	TYA
9a99  48         	PHA
9a9a  b1 f3      	LDA	(Zf3),Y
9a9c  30 08      	BMI	L9aa6
9a9e  20 b9 97   	JSR	S97b9
9aa1  68         	PLA
9aa2  a8         	TAY
9aa3  c8         	INY
9aa4  d0 f2      	BNE	L9a98
9aa6  29 7f      L9aa6:	AND	#$7f	; 127 .
9aa8  20 b9 97   	JSR	S97b9
9aab  68         	PLA
9aac  60         	RTS
9aad             D9aad:	.byte	$6b                     	; "k"
9aae             D9aae:	.byte	$5a                     	; "Z"
9aaf             D9aaf:	.byte	$67                     	; "g"
9ab0             D9ab0:	.byte	$71                     	; "q"

9ab1  ae e8 02   **RUN**:	LDX	D02e8
9ab4  e8         	INX
9ab5  86 8a      	STX	Z8a
9ab7  a9 00      	LDA	#$00	; 0 .
9ab9  85 89      	STA	Z89
9abb  20 41 a2   L9abb:	JSR	Sa241
9abe  a4 8a      	LDY	Z8a
9ac0  c0 80      	CPY	#$80	; 128 .
9ac2  d0 f7      	BNE	L9abb
9ac4  a2 ff      	LDX	#$ff	; 255 .
9ac6  9a         	TXS
9ac7  8e 9c 37   	STX	D379c
9aca  8e c8 37   	STX	D37c8
9acd  8e b8 37   	STX	D37b8
9ad0  a9 9b      	LDA	#$9b	; 155 .
9ad2  8d 70 06   	STA	D0670
9ad5  78         	SEI
9ad6  a5 10      	LDA	Z10
9ad8  29 bf      	AND	#$bf	; 191 .
9ada  85 10      	STA	Z10
9adc  8d 0e d2   	STA	Dd20e
9adf  58         	CLI
9ae0  20 c5 86   	JSR	S86c5
9ae3  20 f6 83   	JSR	S83f6
9ae6  a9 b6      	LDA	#$b6	; 182 .
9ae8  85 89      	STA	Z89
9aea  a9 a4      	LDA	#$a4	; 164 .
9aec  85 8a      	STA	Z8a
9aee  20 d0 83   	JSR	S83d0
9af1  a0 00      	LDY	#$00	; 0 .
9af3  a9 80      	LDA	#$80	; 128 .
9af5  91 8b      	STA	(Z8b),Y
9af7  20 f4 81   	JSR	S81f4
9afa  20 f8 81   	JSR	S81f8
9afd  20 11 84   	JSR	S8411
9b00  a0 01      L9b00:	LDY	#$01	; 1 .
9b02  b1 89      	LDA	(Z89),Y
9b04  cd b0 9a   	CMP	D9ab0
9b07  d0 04      	BNE	L9b0d
9b09  a9 14      	LDA	#$14	; 20 .
9b0b  d0 19      	BNE	L9b26
9b0d  cd af 9a   L9b0d:	CMP	D9aaf
9b10  d0 04      	BNE	L9b16
9b12  a9 12      	LDA	#$12	; 18 .
9b14  d0 10      	BNE	L9b26
9b16  cd ae 9a   L9b16:	CMP	D9aae
9b19  d0 04      	BNE	L9b1f
9b1b  a9 11      	LDA	#$11	; 17 .
9b1d  d0 07      	BNE	L9b26
9b1f  cd ad 9a   L9b1f:	CMP	D9aad
9b22  d0 10      	BNE	L9b34
9b24  a9 13      	LDA	#$13	; 19 .
9b26  88         L9b26:	DEY
9b27  09 80      	ORA	#$80	; 128 .
9b29  91 87      	STA	(Z87),Y
9b2b  20 f4 81   	JSR	S81f4
9b2e  20 e8 81   	JSR	S81e8
9b31  20 11 84   	JSR	S8411
9b34  20 45 a2   L9b34:	JSR	Sa245
9b37  a5 8a      	LDA	Z8a
9b39  c9 c0      	CMP	#$c0	; 192 .
9b3b  d0 c3      	BNE	L9b00
9b3d  a9 00      	LDA	#$00	; 0 .
9b3f  8d 10 31   	STA	D3110
9b42  8d 11 31   	STA	D3111
9b45  85 9f      	STA	Z9f
9b47  85 a0      	STA	Za0
9b49  20 8c 90   	JSR	S908c
9b4c  20 79 ad   	JSR	Sad79
9b4f  20 2c b6   	JSR	Sb62c
9b52  20 b5 8c   	JSR	S8cb5
9b55  a9 4b      	LDA	#$4b	; 75 K
9b57  20 a0 86   	JSR	S86a0
9b5a  a9 45      	LDA	#$45	; 69 E
9b5c  20 a0 86   	JSR	S86a0
9b5f  a9 53      	LDA	#$53	; 83 S
9b61  20 a0 86   	JSR	S86a0
9b64  a9 07      	LDA	#$07	; 7 .
9b66  a2 91      	LDX	#$91	; 145 .
9b68  a0 8c      	LDY	#$8c	; 140 .
9b6a  20 5c e4   	JSR	Se45c
9b6d  a9 06      	LDA	#$06	; 6 .
9b6f  a2 94      	LDX	#$94	; 148 .
9b71  a0 00      	LDY	#$00	; 0 .
9b73  20 5c e4   	JSR	Se45c
9b76  20 8b 86   	JSR	S868b
9b79  20 06 99   	JSR	S9906
9b7c  28         	PLP
9b7d             	.byte	$43,$29,$20,$4c,$43,$53,$49,$20	; "C) LCSI "
9b85             	.byte	$31,$39,$38,$33,$20,$20,$20,$20	; "1983    "
9b8d             	.byte	$41,$4c,$4c,$20,$52,$49,$47,$48	; "ALL RIGH"
9b95             	.byte	$54,$53,$20,$52,$45,$53,$45,$52	; "TS RESER"
9b9d             	.byte	$56,$45,$44,$9b,$20,$06,$99,$57	; "VED. ..W"
9ba5             	.byte	$45,$4c,$43,$4f,$4d,$45,$20,$54	; "ELCOME T"
9bad             	.byte	$4f,$20,$41,$54,$41,$52,$49,$20	; "O ATARI "
9bb5             	.byte	$4c,$4f,$47,$4f,$2e,$9b      	; "LOGO.."
9bbb  a2 ff      L9bbb:	LDX	#$ff	; 255 .
9bbd  9a         	TXS
9bbe  a9 00      	LDA	#$00	; 0 .
9bc0  a2 04      	LDX	#$04	; 4 .
9bc2  95 00      L9bc2:	STA	Z00,X
9bc4  ca         	DEX
9bc5  10 fb      	BPL	L9bc2
9bc7  a2 07      	LDX	#$07	; 7 .
9bc9  95 91      L9bc9:	STA	Z91,X
9bcb  ca         	DEX
9bcc  10 fb      	BPL	L9bc9
9bce  20 6a 86   	JSR	S866a
9bd1  20 cf 82   	JSR	S82cf
9bd4  20 d6 82   	JSR	S82d6
9bd7  8d 9b 37   	STA	D379b
9bda  a0 d0      	LDY	#$d0	; 208 .
9bdc  a2 9b      	LDX	#$9b	; 155 .
9bde  20 92 8d   	JSR	S8d92
9be1  a9 00      	LDA	#$00	; 0 .
9be3  8d 06 31   	STA	D3106
9be6  8d 0b 31   	STA	D310b
9be9  85 8f      	STA	Z8f
9beb  a9 31      	LDA	#$31	; 49 1
9bed  8d 07 31   	STA	D3107
9bf0  8d 0c 31   	STA	D310c
9bf3  85 90      	STA	Z90
9bf5  20 39 86   	JSR	S8639
9bf8  20 b5 a3   	JSR	Sa3b5
9bfb  20 e0 96   	JSR	S96e0
9bfe  20 ef 82   L9bfe:	JSR	S82ef
9c01  20 ab 8d   	JSR	S8dab
9c04  20 40 8d   	JSR	S8d40
9c07  20 9a 83   	JSR	S839a
9c0a  a5 9c      	LDA	Z9c
9c0c  d0 09      	BNE	L9c17
9c0e  20 3c 8d   	JSR	S8d3c
9c11  20 7f 83   	JSR	S837f
9c14  4c d9 8d   	JMP	L8dd9
9c17  a0 09      L9c17:	LDY	#$09	; 9 .
9c19  a2 9c      	LDX	#$9c	; 156 .
9c1b  20 92 8d   	JSR	S8d92
9c1e  20 84 88   L9c1e:	JSR	S8884
9c21  20 df 88   	JSR	S88df
9c24  a5 9c      	LDA	Z9c
9c26  d0 03      	BNE	L9c2b
9c28  4c 4d 87   L9c28:	JMP	L874d
9c2b  a0 00      L9c2b:	LDY	#$00	; 0 .
9c2d  b1 9b      	LDA	(Z9b),Y
9c2f  29 08      	AND	#$08	; 8 .
9c31  f0 04      	BEQ	L9c37
9c33  a5 8d      	LDA	Z8d
9c35  d0 f1      	BNE	L9c28
9c37  20 8e 82   L9c37:	JSR	S828e
9c3a  a0 00      	LDY	#$00	; 0 .
9c3c  b1 9b      	LDA	(Z9b),Y
9c3e  29 f7      	AND	#$f7	; 247 .
9c40  48         	PHA
9c41  20 9b 82   	JSR	S829b
9c44  68         	PLA
9c45  c9 06      	CMP	#$06	; 6 .
9c47  f0 0f      	BEQ	L9c58
9c49  c9 04      	CMP	#$04	; 4 .
9c4b  d0 11      	BNE	L9c5e
9c4d  20 dd 82   	JSR	S82dd
9c50  20 74 84   	JSR	S8474
9c53  d0 03      	BNE	L9c58
9c55  4c d9 87   	JMP	L87d9
9c58  20 af 8d   L9c58:	JSR	S8daf
9c5b  4c da 9e   	JMP	L9eda
9c5e  a0 00      L9c5e:	LDY	#$00	; 0 .
9c60  b1 89      	LDA	(Z89),Y
9c62  f0 f4      	BEQ	L9c58
9c64  c9 21      	CMP	#$21	; 33 !
9c66  f0 f0      	BEQ	L9c58
9c68  20 81 8e   	JSR	S8e81
9c6b  f0 eb      	BEQ	L9c58
9c6d  20 3c 8e   	JSR	S8e3c
9c70  d0 65      	BNE	L9cd7
9c72  20 a0 8d   	JSR	S8da0
9c75  20 b5 83   	JSR	S83b5
9c78  a0 00      	LDY	#$00	; 0 .
9c7a  b1 89      	LDA	(Z89),Y
9c7c  c9 11      	CMP	#$11	; 17 .
9c7e  f0 a8      	BEQ	L9c28
9c80  c9 13      	CMP	#$13	; 19 .
9c82  f0 4d      	BEQ	L9cd1
9c84  c9 14      	CMP	#$14	; 20 .
9c86  f0 49      	BEQ	L9cd1
9c88  c9 12      	CMP	#$12	; 18 .
9c8a  f0 45      	BEQ	L9cd1
9c8c  20 63 82   	JSR	S8263
9c8f  20 66 82   	JSR	S8266
9c92  a5 89      	LDA	Z89
9c94  85 8d      	STA	Z8d
9c96  a5 8a      	LDA	Z8a
9c98  85 8e      	STA	Z8e
9c9a  f0 3d      	BEQ	L9cd9
9c9c  20 49 83   	JSR	S8349
9c9f  20 6a 82   	JSR	S826a
9ca2  20 2c 8f   	JSR	S8f2c
9ca5  a9 00      	LDA	#$00	; 0 .
9ca7  85 b5      	STA	Zb5
9ca9  20 03 97   	JSR	S9703
9cac  a0 00      	LDY	#$00	; 0 .
9cae  b1 89      	LDA	(Z89),Y
9cb0  c9 05      	CMP	#$05	; 5 .
9cb2  d0 0b      	BNE	L9cbf
9cb4  20 66 82   	JSR	S8266
9cb7  a0 00      	LDY	#$00	; 0 .
9cb9  b1 89      	LDA	(Z89),Y
9cbb  c9 21      	CMP	#$21	; 33 !
9cbd  d0 0f      	BNE	L9cce
9cbf  20 31 8d   L9cbf:	JSR	S8d31
9cc2  20 37 83   	JSR	S8337
9cc5  20 e8 81   	JSR	S81e8
9cc8  20 7f 83   	JSR	S837f
9ccb  4c 1e 9c   	JMP	L9c1e
9cce  4c 77 87   L9cce:	JMP	L8777
9cd1  20 bc 84   L9cd1:	JSR	S84bc
9cd4  4c d9 9c   	JMP	L9cd9
9cd7  c6 8d      L9cd7:	DEC	Z8d
9cd9  a5 8d      L9cd9:	LDA	Z8d
9cdb  f0 0a      	BEQ	L9ce7
9cdd  a0 d6      	LDY	#$d6	; 214 .
9cdf  a2 9c      	LDX	#$9c	; 156 .
9ce1  20 92 8d   	JSR	S8d92
9ce4  4c 1e 9c   	JMP	L9c1e
9ce7  a0 00      L9ce7:	LDY	#$00	; 0 .
9ce9  b1 8f      	LDA	(Z8f),Y
9ceb  c9 01      	CMP	#$01	; 1 .
9ced  f0 19      	BEQ	L9d08
9cef  c9 14      	CMP	#$14	; 20 .
9cf1  d0 06      	BNE	S9cf9
9cf3  20 f9 9c   	JSR	S9cf9
9cf6  4c 3c 9f   	JMP	L9f3c

9cf9  20 49 83   S9cf9:	JSR	S8349
9cfc  20 6d 82   	JSR	S826d
9cff  20 45 a2   	JSR	Sa245
9d02  20 45 a2   	JSR	Sa245
9d05  6c 89 00   	JMP	(Z89)
9d08  20 0a 9e   L9d08:	JSR	S9e0a
9d0b  d0 03      	BNE	L9d10
9d0d  4c 94 9d   	JMP	L9d94
9d10  20 37 9d   L9d10:	JSR	S9d37
9d13  20 c8 82   	JSR	S82c8
9d16  20 6e 9d   L9d16:	JSR	S9d6e
9d19  20 ad 82   	JSR	S82ad
9d1c  d0 f8      	BNE	L9d16
9d1e  20 b3 8d   	JSR	S8db3
9d21  20 49 83   	JSR	S8349
9d24  20 63 82   	JSR	S8263
9d27  20 6a 82   	JSR	S826a
9d2a  20 af 8d   	JSR	S8daf
9d2d  a0 1c      	LDY	#$1c	; 28 .
9d2f  a2 9f      	LDX	#$9f	; 159 .
9d31  20 92 8d   	JSR	S8d92
9d34  4c fe 9b   	JMP	L9bfe

9d37  20 e2 83   S9d37:	JSR	S83e2
9d3a  20 af 8d   	JSR	S8daf
9d3d  20 49 83   	JSR	S8349
9d40  20 af 8d   	JSR	S8daf
9d43  20 63 82   	JSR	S8263
9d46  20 63 82   	JSR	S8263
9d49  20 ea 8f   	JSR	S8fea
9d4c  a0 01      	LDY	#$01	; 1 .
9d4e  a9 05      	LDA	#$05	; 5 .
9d50  91 8b      	STA	(Z8b),Y
9d52  c8         	INY
9d53  a9 31      	LDA	#$31	; 49 1
9d55  91 8b      	STA	(Z8b),Y
9d57  20 46 82   	JSR	S8246
9d5a  20 e2 8f   	JSR	S8fe2
9d5d  a0 01      	LDY	#$01	; 1 .
9d5f  a9 0a      	LDA	#$0a	; 10 .
9d61  91 87      	STA	(Z87),Y
9d63  c8         	INY
9d64  a9 31      	LDA	#$31	; 49 1
9d66  91 87      	STA	(Z87),Y
9d68  20 f8 81   	JSR	S81f8
9d6b  4c f8 82   	JMP	L82f8

9d6e  20 01 83   S9d6e:	JSR	S8301
9d71  20 52 82   	JSR	S8252
9d74  20 e6 8f   	JSR	S8fe6
9d77  a0 01      	LDY	#$01	; 1 .
9d79  b1 87      	LDA	(Z87),Y
9d7b  91 89      	STA	(Z89),Y
9d7d  c8         	INY
9d7e  b1 87      	LDA	(Z87),Y
9d80  91 89      	STA	(Z89),Y
9d82  20 26 82   	JSR	S8226
9d85  20 ea 8f   	JSR	S8fea
9d88  20 32 82   	JSR	S8232
9d8b  20 46 82   	JSR	S8246
9d8e  20 40 8d   	JSR	S8d40
9d91  4c e4 81   	JMP	S81e4
9d94  20 37 9d   L9d94:	JSR	S9d37
9d97  20 bc 9d   	JSR	S9dbc
9d9a  20 49 83   	JSR	S8349
9d9d  20 63 82   	JSR	S8263
9da0  20 6a 82   	JSR	S826a
9da3  20 9a 83   	JSR	S839a
9da6  20 38 8d   	JSR	S8d38
9da9  a5 8d      	LDA	Z8d
9dab  f0 06      	BEQ	L9db3
9dad  20 3c 8d   	JSR	S8d3c
9db0  20 31 8d   	JSR	S8d31
9db3  20 34 8d   L9db3:	JSR	S8d34
9db6  20 cf 82   	JSR	S82cf
9db9  4c 1e 9c   	JMP	L9c1e

9dbc  20 c8 82   S9dbc:	JSR	S82c8
9dbf  a5 96      	LDA	Z96
9dc1  f0 03      	BEQ	L9dc6
9dc3  20 44 8d   	JSR	S8d44
9dc6  20 c7 83   L9dc6:	JSR	S83c7
9dc9  20 76 83   L9dc9:	JSR	S8376
9dcc  a5 a8      	LDA	Za8
9dce  f0 37      	BEQ	L9e07
9dd0  a5 8c      L9dd0:	LDA	Z8c
9dd2  d0 0c      	BNE	L9de0
9dd4  20 76 83   	JSR	S8376
9dd7  20 6e 9d   	JSR	S9d6e
9dda  20 ad 82   	JSR	S82ad
9ddd  4c c6 9d   	JMP	L9dc6
9de0  a0 01      L9de0:	LDY	#$01	; 1 .
9de2  b1 a7      	LDA	(Za7),Y
9de4  d1 8b      	CMP	(Z8b),Y
9de6  d0 19      	BNE	L9e01
9de8  c8         	INY
9de9  b1 a7      	LDA	(Za7),Y
9deb  d1 8b      	CMP	(Z8b),Y
9ded  d0 12      	BNE	L9e01
9def  20 01 83   	JSR	S8301
9df2  20 52 82   	JSR	S8252
9df5  20 40 8d   	JSR	S8d40
9df8  20 e4 81   	JSR	S81e4
9dfb  20 ad 82   	JSR	S82ad
9dfe  4c c9 9d   	JMP	L9dc9
9e01  20 7e 82   L9e01:	JSR	S827e
9e04  4c d0 9d   	JMP	L9dd0
9e07  4c b3 8d   L9e07:	JMP	S8db3

9e0a  20 cb 84   S9e0a:	JSR	S84cb
9e0d  f0 44      	BEQ	L9e53
9e0f  ad c8 37   	LDA	D37c8
9e12  f0 3f      	BEQ	L9e53
9e14  20 1c 83   	JSR	S831c
9e17  20 73 9e   	JSR	S9e73
9e1a  a5 89      	LDA	Z89
9e1c  f0 38      	BEQ	L9e56
9e1e  c9 01      	CMP	#$01	; 1 .
9e20  d0 31      	BNE	L9e53
9e22  a0 01      	LDY	#$01	; 1 .
9e24  b1 99      	LDA	(Z99),Y
9e26  aa         	TAX
9e27  c8         	INY
9e28  b1 99      	LDA	(Z99),Y
9e2a  e0 41      	CPX	#$41	; 65 A
9e2c  d0 04      	BNE	L9e32
9e2e  c9 31      	CMP	#$31	; 49 1
9e30  f0 08      	BEQ	L9e3a
9e32  e0 3c      L9e32:	CPX	#$3c	; 60 <
9e34  d0 1d      	BNE	L9e53
9e36  c9 31      	CMP	#$31	; 49 1
9e38  d0 19      	BNE	L9e53
9e3a  20 73 9e   L9e3a:	JSR	S9e73
9e3d  a5 89      	LDA	Z89
9e3f  d0 12      	BNE	L9e53
9e41  20 73 9e   	JSR	S9e73
9e44  a5 89      	LDA	Z89
9e46  f0 0b      	BEQ	L9e53
9e48  20 8e 82   	JSR	S828e
9e4b  a0 00      	LDY	#$00	; 0 .
9e4d  b1 89      	LDA	(Z89),Y
9e4f  c9 11      	CMP	#$11	; 17 .
9e51  d0 1d      	BNE	L9e70
9e53  a9 01      L9e53:	LDA	#$01	; 1 .
9e55  60         	RTS
9e56  20 73 9e   L9e56:	JSR	S9e73
9e59  a5 89      	LDA	Z89
9e5b  d0 f6      	BNE	L9e53
9e5d  a5 9c      	LDA	Z9c
9e5f  f0 0f      	BEQ	L9e70
9e61  20 8e 82   	JSR	S828e
9e64  a5 89      	LDA	Z89
9e66  c9 37      	CMP	#$37	; 55 7
9e68  d0 e9      	BNE	L9e53
9e6a  a5 8a      	LDA	Z8a
9e6c  c9 31      	CMP	#$31	; 49 1
9e6e  d0 e3      	BNE	L9e53
9e70  a9 00      L9e70:	LDA	#$00	; 0 .
9e72  60         	RTS

9e73  20 25 83   S9e73:	JSR	S8325
9e76  20 56 82   	JSR	S8256
9e79  4c 66 82   	JMP	S8266
9e7c             	.byte	$20,$a3,$8d,$a9,$00,$85,$8e,$a5	; " ......."
9e84             	.byte	$8d,$f0,$25,$20,$ef,$82,$20,$ab	; "..% .. ."
9e8c             	.byte	$8d,$20,$9a,$83,$20,$7d,$8d,$9c	; ". .. }.."
9e94             	.byte	$1d,$20,$37,$83,$f0,$06,$20,$af	; ". 7... ."
9e9c             	.byte	$8d,$4c,$18,$87,$20,$3c,$8d,$20	; ".L.. <. "
9ea4             	.byte	$38,$8d,$20,$7f,$83,$4c,$d9,$8d	; "8. ..L.."
9eac             	.byte	$20,$af,$8d,$20,$7d,$8d,$9b,$fd	; " .. }..."
9eb4             	.byte	$ad,$9b,$37,$f0,$03,$20,$d6,$82	; "..7.. .."
9ebc             	.byte	$20,$38,$8d,$4c,$d9,$8d,$a9,$23	; " 8.L...#"
9ec4             	.byte	$85,$89,$a9,$31,$85,$8a,$d0,$08	; "...1...."
9ecc             	.byte	$a9,$28,$85,$89,$a9,$31,$85,$8a	; ".(...1.."
9ed4             	.byte	$20,$af,$8d,$20,$31,$8d      	; " .. 1."
9eda  a0 00      L9eda:	LDY	#$00	; 0 .
9edc  b1 9b      	LDA	(Z9b),Y
9ede  c9 05      	CMP	#$05	; 5 .
9ee0  d0 31      	BNE	L9f13
9ee2  20 8e 82   	JSR	S828e
9ee5  a0 00      	LDY	#$00	; 0 .
9ee7  b1 89      	LDA	(Z89),Y
9ee9  c9 11      	CMP	#$11	; 17 .
9eeb  d0 26      	BNE	L9f13
9eed  20 64 83   	JSR	S8364
9ef0  20 81 82   	JSR	S8281
9ef3  a0 00      	LDY	#$00	; 0 .
9ef5  b1 8b      	LDA	(Z8b),Y
9ef7  c5 8e      	CMP	Z8e
9ef9  f0 18      	BEQ	L9f13
9efb  90 16      	BCC	L9f13
9efd  20 9b 82   	JSR	S829b
9f00  20 a0 8d   	JSR	S8da0
9f03  20 b5 83   	JSR	S83b5
9f06  a0 00      	LDY	#$00	; 0 .
9f08  b1 8b      	LDA	(Z8b),Y
9f0a  85 8e      	STA	Z8e
9f0c  a9 01      	LDA	#$01	; 1 .
9f0e  85 8d      	STA	Z8d
9f10  4c d9 9c   	JMP	L9cd9
9f13  a5 8d      L9f13:	LDA	Z8d
9f15  8d c6 37   	STA	D37c6
9f18  d0 33      	BNE	L9f4d
9f1a  4c 18 87   	JMP	L8718
9f1d             	.byte	$ad,$06,$31,$48,$ad,$07,$31,$48	; "..1H..1H"
9f25             	.byte	$20,$60,$9f,$68,$8d,$0c,$31,$68	; " `.h..1h"
9f2d             	.byte	$8d,$0b,$31,$ad,$9b,$37,$a2,$00	; "..1..7.."
9f35             	.byte	$8e,$9b,$37,$c9,$02,$f0,$9b   	; "..7...."
9f3c  20 49 83   L9f3c:	JSR	S8349
9f3f  20 31 8d   	JSR	S8d31
9f42  a9 00      	LDA	#$00	; 0 .
9f44  8d c6 37   	STA	D37c6
9f47  a5 8d      	LDA	Z8d
9f49  30 02      	BMI	L9f4d
9f4b  d0 03      	BNE	L9f50
9f4d  4c d9 8d   L9f4d:	JMP	L8dd9
9f50  4c 8f 87   L9f50:	JMP	L878f
9f53  a5 96      L9f53:	LDA	Z96
9f55  d0 03      	BNE	L9f5a
9f57  4c bb 9b   	JMP	L9bbb
9f5a  20 60 9f   L9f5a:	JSR	S9f60
9f5d  4c 53 9f   	JMP	L9f53

9f60  20 44 8d   S9f60:	JSR	S8d44
9f63  a5 8c      L9f63:	LDA	Z8c
9f65  f0 22      	BEQ	L9f89
9f67  a0 01      	LDY	#$01	; 1 .
9f69  b1 8b      	LDA	(Z8b),Y
9f6b  85 89      	STA	Z89
9f6d  c8         	INY
9f6e  b1 8b      	LDA	(Z8b),Y
9f70  85 8a      	STA	Z8a
9f72  20 81 82   	JSR	S8281
9f75  a0 01      	LDY	#$01	; 1 .
9f77  b1 8b      	LDA	(Z8b),Y
9f79  85 87      	STA	Z87
9f7b  c8         	INY
9f7c  b1 8b      	LDA	(Z8b),Y
9f7e  85 88      	STA	Z88
9f80  20 12 82   	JSR	S8212
9f83  20 81 82   	JSR	S8281
9f86  4c 63 9f   	JMP	L9f63
9f89  60         L9f89:	RTS
9f8a             	.byte	$20,$ff,$a1,$f0,$0b,$20,$e6,$a1	; " .... .."
9f92             	.byte	$20,$f8,$a1,$d0,$f3,$20,$df,$a1	; " .... .."
9f9a             	.byte	$a9,$00,$85,$b6,$60,$20,$bd,$9f	; "....` .."
9fa2             	.byte	$20,$f8,$a1,$d0,$0d,$20,$df,$a1	; " .... .."
9faa             	.byte	$20,$cb,$9f,$20,$e6,$a1,$a9,$07	; " .. ...."
9fb2             	.byte	$85,$b6,$60,$20,$91,$86,$a9,$9b	; "..` ...."
9fba             	.byte	$20,$b9,$97,$20,$ff,$a1,$d0,$03	; " .. ...."
9fc2             	.byte	$4c,$39,$94,$20,$e6,$a1,$4c,$aa	; "L9. ..L."
9fca             	.byte	$a1                     	; "."

9fcb  20 55 a2   S9fcb:	JSR	Sa255
9fce  f0 0b      	BEQ	L9fdb
9fd0  20 f8 a1   	JSR	Sa1f8
9fd3  f0 06      	BEQ	L9fdb
9fd5  20 df a1   	JSR	Sa1df
9fd8  4c cb 9f   	JMP	S9fcb
9fdb  4c aa a1   L9fdb:	JMP	La1aa
9fde             	.byte	$20,$df,$a1,$20,$aa,$a1,$20,$f8	; " .. .. ."
9fe6             	.byte	$a1,$d0,$03,$20,$8a,$9f,$60,$20	; "... ..` "
9fee             	.byte	$55,$a2,$f0,$06,$20,$df,$a1,$4c	; "U... ..L"
9ff6             	.byte	$aa,$a1,$4c,$39,$94,$20,$ff,$a1	; "..L9. .."
9ffe             	.byte	$d0,$03,$4c,$39,$94,$20,$e6,$a1	; "..L9. .."
a006             	.byte	$20,$55,$a2,$90,$03,$4c,$39,$94	; " U...L9."
a00e             	.byte	$20,$cb,$a1,$a0,$01,$b1,$ad,$88	; " ......."
a016             	.byte	$91,$ad,$20,$df,$a1,$20,$55,$a2	; ".. .. U."
a01e             	.byte	$90,$f1,$20,$ef,$a1,$4c,$a7,$a1	; ".. ..L.."
a026             	.byte	$20,$55,$a2,$90,$03,$4c,$39,$94	; " U...L9."
a02e             	.byte	$20,$f8,$a1,$d0,$03,$4c,$06,$a0	; " ....L.."
a036             	.byte	$20,$cb,$a1,$a2,$00,$20,$d4,$a1	; " .... .."
a03e             	.byte	$9d,$70,$06,$c9,$9b,$f0,$0f,$e8	; ".p......"
a046             	.byte	$e0,$6d,$f0,$05,$20,$55,$a2,$90	; ".m.. U.."
a04e             	.byte	$ec,$a9,$9b,$9d,$70,$06,$20,$c2	; "....p. ."
a056             	.byte	$a1,$20,$cb,$a1,$86,$b6,$38,$a5	; ". ....8."
a05e             	.byte	$b1,$e5,$b6,$85,$b1,$b0,$02,$c6	; "........"
a066             	.byte	$b2,$a4,$b6,$b1,$ad,$20,$db,$a1	; "..... .."
a06e             	.byte	$20,$55,$a2,$90,$f4,$4c,$a7,$a1	; " U...L.."
a076             	.byte	$20,$cb,$a1,$a9,$0b,$85,$b8,$a2	; " ......."
a07e             	.byte	$25,$20,$ff,$a1,$f0,$12,$20,$e6	; "% .... ."
a086             	.byte	$a1,$ca,$f0,$05,$20,$f8,$a1   	; ".... .."
a08d             Da08d:	.byte	$d0,$f0,$c6,$b8,$d0,$ea,$20,$df	; "...... ."
a095             	.byte	$a1,$20,$1c,$a2,$4c,$c2,$a1,$20	; ". ..L.. "
a09d             	.byte	$cb,$a1,$20,$f8,$a1,$f0,$0a,$20	; ".. .... "
a0a5             	.byte	$df,$a1,$20,$55,$a2,$90,$f3,$b0	; ".. U...."
a0ad             	.byte	$08,$20,$df,$a1,$20,$55,$a2,$90	; ". .. U.."
a0b5             	.byte	$06,$20,$c2,$a1,$4c,$39,$94,$a2	; ". ..L9.."
a0bd             	.byte	$00,$20,$f8,$a1,$f0,$10,$e4,$b6	; ". ......"
a0c5             	.byte	$f0,$0c,$e8,$20,$df,$a1,$20,$55	; "... .. U"
a0cd             	.byte	$a2,$90,$ee,$20,$e6,$a1,$60,$20	; "... ..` "
a0d5             	.byte	$cb,$a1,$20,$ff,$a1,$d0,$06,$20	; ".. .... "
a0dd             	.byte	$c2,$a1,$4c,$39,$94,$20,$e6,$a1	; "..L9. .."
a0e5             	.byte	$20,$f8,$a1,$d0,$ed,$20,$ff,$a1	; " .... .."
a0ed             	.byte	$f0,$cd,$20,$e6,$a1,$20,$f8,$a1	; ".. .. .."
a0f5             	.byte	$d0,$f3,$20,$df,$a1,$4c,$bc,$a0	; ".. ..L.."
a0fd             	.byte	$20,$cb,$a1,$20,$13,$a2,$a9,$16	; " .. ...."
a105             	.byte	$85,$b8,$a2,$25,$20,$55,$a2,$90	; "...% U.."
a10d             	.byte	$06,$20,$c2,$a1,$4c,$39,$94,$20	; ". ..L9. "
a115             	.byte	$df,$a1,$ca,$f0,$05,$20,$f8,$a1	; "..... .."
a11d             	.byte	$d0,$ea,$c6,$b8,$d0,$e4,$f0,$2a	; ".......*"
a125             	.byte	$20,$cb,$a1,$20,$13,$a2,$a9,$17	; " .. ...."
a12d             	.byte	$85,$b8,$a2,$25,$20,$ff,$a1,$d0	; "...% ..."
a135             	.byte	$0a,$c6,$b8,$f0,$18,$20,$c2,$a1	; "..... .."
a13d             	.byte	$4c,$39,$94,$20,$e6,$a1,$ca,$f0	; "L9. ...."
a145             	.byte	$05,$20,$f8,$a1,$d0,$e6,$c6,$b8	; ". ......"
a14d             	.byte	$d0,$e0,$20,$df,$a1,$a9,$00,$85	; ".. ....."
a155             	.byte	$b6,$4c,$1c,$a2,$a5,$b1,$85,$ad	; ".L......"
a15d             	.byte	$a5,$b2,$85,$ae,$60,$a2,$00,$ac	; "....`..."
a165             	.byte	$c1,$37,$d0,$04            	; ".7.."

a169  a2 00      Sa169:	LDX	#$00	; 0 .
a16b  a0 06      	LDY	#$06	; 6 .
a16d  86 ad      	STX	Zad
a16f  86 af      	STX	Zaf
a171  86 b3      	STX	Zb3
a173  84 ae      	STY	Zae
a175  84 b0      	STY	Zb0
a177  84 b4      	STY	Zb4
a179  60         	RTS
a17a             	.byte	$20,$91,$86,$a2,$00,$86,$b6,$bd	; " ......."
a182             	.byte	$70,$06,$c9,$9b,$f0,$0d,$20,$b9	; "p..... ."
a18a             	.byte	$97,$30,$08,$e6,$b6,$a6,$b6,$e0	; ".0......"
a192             	.byte	$6d,$d0,$ec,$4c,$aa,$a1,$a9,$9b	; "m..L...."
a19a             	.byte	$d0,$06,$a9,$a0,$d0,$02,$a9,$94	; "........"
a1a2             	.byte	$a0,$00,$91,$ad,$60,$20,$c2,$a1	; "....` .."
a1aa  20 cb a1   La1aa:	JSR	Sa1cb
a1ad  a9 00      	LDA	#$00	; 0 .
a1af  85 b6      	STA	Zb6
a1b1  20 ff a1   La1b1:	JSR	Sa1ff
a1b4  f0 0c      	BEQ	La1c2
a1b6  20 e6 a1   	JSR	Sa1e6
a1b9  20 f8 a1   	JSR	Sa1f8
a1bc  f0 04      	BEQ	La1c2
a1be  e6 b6      	INC	Zb6
a1c0  d0 ef      	BNE	La1b1
a1c2  a5 ab      La1c2:	LDA	Zab
a1c4  85 ad      	STA	Zad
a1c6  a5 ac      	LDA	Zac
a1c8  85 ae      	STA	Zae
a1ca  60         	RTS

a1cb  a5 ad      Sa1cb:	LDA	Zad
a1cd  85 ab      	STA	Zab
a1cf  a5 ae      	LDA	Zae
a1d1  85 ac      	STA	Zac
a1d3  60         	RTS
a1d4             	.byte	$a0,$00,$b1,$ad,$4c,$df,$a1,$a0	; "....L..."
a1dc             	.byte	$00,$91,$ad               	; "..."

a1df  e6 ad      Sa1df:	INC	Zad
a1e1  d0 02      	BNE	La1e5
a1e3  e6 ae      	INC	Zae
a1e5  60         La1e5:	RTS

a1e6  a5 ad      Sa1e6:	LDA	Zad
a1e8  d0 02      	BNE	La1ec
a1ea  c6 ae      	DEC	Zae
a1ec  c6 ad      La1ec:	DEC	Zad
a1ee  60         	RTS
a1ef             	.byte	$a5,$b1,$d0,$02,$c6,$b2,$c6,$b1	; "........"
a1f7             	.byte	$60                     	; "`"

a1f8  a0 00      Sa1f8:	LDY	#$00	; 0 .
a1fa  b1 ad      	LDA	(Zad),Y
a1fc  c9 9b      	CMP	#$9b	; 155 .
a1fe  60         	RTS

a1ff  a5 ad      Sa1ff:	LDA	Zad
a201  c5 af      	CMP	Zaf
a203  d0 04      	BNE	La209
a205  a5 ae      	LDA	Zae
a207  c5 b0      	CMP	Zb0
a209  60         La209:	RTS

a20a  a5 ad      Sa20a:	LDA	Zad
a20c  85 b1      	STA	Zb1
a20e  a5 ae      	LDA	Zae
a210  85 b2      	STA	Zb2
a212  60         	RTS
a213             	.byte	$a5,$b3,$85,$ad,$a5,$b4,$85,$ae	; "........"
a21b             	.byte	$60,$a5,$ad,$85,$b3,$a5,$ae,$85	; "`......."
a223             	.byte	$b4,$60,$20,$df,$a1,$e6,$b1,$d0	; ".` ....."
a22b             	.byte	$02,$e6,$b2,$60            	; "...`"

a22f  a0 00      Sa22f:	LDY	#$00	; 0 .
a231  b1 87      	LDA	(Z87),Y

a233  e6 87      Sa233:	INC	Z87
a235  d0 02      	BNE	La239
a237  e6 88      	INC	Z88
a239  60         La239:	RTS
a23a             	.byte	$a0,$00,$b1,$89,$4c,$45,$a2   	; "....LE."

a241  a0 00      Sa241:	LDY	#$00	; 0 .
a243  91 89      	STA	(Z89),Y

a245  e6 89      Sa245:	INC	Z89
a247  d0 02      	BNE	La24b
a249  e6 8a      	INC	Z8a
a24b  60         La24b:	RTS

a24c  a0 00      Sa24c:	LDY	#$00	; 0 .
a24e  b1 ad      	LDA	(Zad),Y
a250  49 80      	EOR	#$80	; 128 .
a252  91 ad      	STA	(Zad),Y
a254  60         	RTS

a255  a5 ae      Sa255:	LDA	Zae
a257  c5 b2      	CMP	Zb2
a259  90 06      	BCC	La261
a25b  d0 04      	BNE	La261
a25d  a5 ad      	LDA	Zad
a25f  c5 b1      	CMP	Zb1
a261  60         La261:	RTS

a262  a5 5b      Sa262:	LDA	Z5b
a264  85 55      	STA	Z55
a266  a5 5a      	LDA	Z5a
a268  85 54      	STA	Z54
a26a  20 cb a1   	JSR	Sa1cb
a26d  20 69 a1   	JSR	Sa169
a270  a0 00      La270:	LDY	#$00	; 0 .
a272  b1 ad      	LDA	(Zad),Y
a274  20 f7 97   	JSR	S97f7
a277  20 55 a2   	JSR	Sa255
a27a  b0 06      	BCS	La282
a27c  20 df a1   	JSR	Sa1df
a27f  4c 70 a2   	JMP	La270
a282  60         La282:	RTS

a283  20 62 a2   Sa283:	JSR	Sa262
a286  a5 55      La286:	LDA	Z55
a288  c9 26      	CMP	#$26	; 38 &
a28a  f0 08      	BEQ	La294
a28c  a9 20      	LDA	#$20	; 32  
a28e  20 f7 97   	JSR	S97f7
a291  4c 86 a2   	JMP	La286
a294  20 81 98   La294:	JSR	S9881
a297  a0 00      	LDY	#$00	; 0 .
a299  b1 ba      	LDA	(Zba),Y
a29b  c9 5f      	CMP	#$5f	; 95 _
a29d  d0 0b      	BNE	La2aa
a29f  a9 20      	LDA	#$20	; 32  
a2a1  20 3c 98   	JSR	S983c
a2a4  20 29 98   	JSR	S9829
a2a7  4c 86 a2   	JMP	La286
a2aa  a5 5b      La2aa:	LDA	Z5b
a2ac  85 55      	STA	Z55
a2ae  a5 5a      	LDA	Z5a
a2b0  85 54      	STA	Z54
a2b2  4c c2 a1   	JMP	La1c2
a2b5             	.byte	$38,$a5,$ad,$e5,$b3,$a5,$ae,$e5	; "8......."
a2bd             	.byte	$b4,$b0,$03,$20,$76,$a0,$20,$4c	; "... v. L"
a2c5             	.byte	$a2,$20,$04,$85,$20,$cb,$a1,$20	; ". .. .. "
a2cd             	.byte	$13,$a2,$20,$81,$98,$20,$d4,$a1	; ".. .. .."
a2d5             	.byte	$c9,$1b,$d0,$09,$a9,$a0,$20,$f7	; "...... ."
a2dd             	.byte	$97,$a9,$9b,$d0,$10,$a6,$55,$e0	; "......U."
a2e5             	.byte	$26,$f0,$0a,$c9,$9b,$f0,$06,$20	; "&...... "
a2ed             	.byte	$30,$98,$4c,$f8,$a2,$20,$f7,$97	; "0.L.. .."
a2f5             	.byte	$20,$81,$98,$20,$55,$a2,$b0,$23	; " .. U..#"
a2fd             	.byte	$a5,$55,$c9,$01,$d0,$cf,$a5,$54	; ".U.....T"
a305             	.byte	$c9,$17,$d0,$c9,$38,$a5,$ad,$e5	; "....8..."
a30d             	.byte	$ab,$a5,$ae,$e5,$ac,$b0,$20,$20	; "......  "
a315             	.byte	$c2,$a1,$20,$4c,$a2,$4c,$c0,$a2	; ".. L.L.."
a31d             	.byte	$20,$29,$98,$a5,$54,$c9,$18,$f0	; " )..T..."
a325             	.byte	$0e,$a6,$55,$e0,$26,$f0,$f1,$a9	; "..U.&..."
a32d             	.byte	$20,$20,$30,$98,$4c,$20,$a3,$20	; "  0.L . "
a335             	.byte	$c2,$a1,$20,$4c,$a2,$4c,$2a,$a6	; ".. L.L*."
a33d             	.byte	$a0,$00,$a9,$20,$91,$ad,$20,$62	; "... .. b"
a345             	.byte	$a1,$20,$b5,$a2,$20,$56,$96,$10	; ". .. V.."
a34d             	.byte	$05,$85,$11,$4c,$a7,$a4,$ad,$86	; "...L...."
a355             	.byte	$37,$c9,$1b,$f0,$16,$a0,$00,$20	; "7...... "
a35d             	.byte	$8c,$a3,$f0,$e5,$20,$91,$86,$ad	; ".... ..."
a365             	.byte	$86,$37,$20,$b9,$97,$20,$aa,$a1	; ".7 .. .."
a36d             	.byte	$4c,$46,$a3,$20,$a7,$a4,$20,$76	; "LF. .. v"
a375             	.byte	$86,$20,$62,$a1,$20,$9e,$96,$30	; ". b. ..0"
a37d             	.byte	$0b,$20,$e0,$96,$20,$7d,$8d,$9b	; ". .. }.."
a385             	.byte	$fd,$4c,$79,$a3,$4c,$6a,$86   	; ".Ly.Lj."

a38c  d9 d0 80   Sa38c:	CMP	D80d0,Y
a38f  f0 15      	BEQ	La3a6
a391  c8         	INY
a392  c8         	INY
a393  c8         	INY
a394  be d0 80   	LDX	D80d0,Y
a397  d0 f3      	BNE	Sa38c
a399  c9 20      	CMP	#$20	; 32  
a39b  b0 06      	BCS	La3a3
a39d  20 39 94   	JSR	S9439
a3a0  4c a9 a3   	JMP	La3a9
a3a3  a9 01      La3a3:	LDA	#$01	; 1 .
a3a5  60         	RTS
a3a6  20 ac a3   La3a6:	JSR	Sa3ac
a3a9  a9 00      La3a9:	LDA	#$00	; 0 .
a3ab  60         	RTS

a3ac  b9 d1 80   Sa3ac:	LDA	D80d1,Y
a3af  48         	PHA
a3b0  b9 d2 80   	LDA	D80d2,Y
a3b3  48         	PHA
a3b4  60         	RTS

a3b5  a5 55      Sa3b5:	LDA	Z55
a3b7  85 5b      	STA	Z5b
a3b9  a5 54      	LDA	Z54
a3bb  85 5a      	STA	Z5a
a3bd  20 69 a1   	JSR	Sa169
a3c0  20 0a a2   	JSR	Sa20a
a3c3  a9 6e      	LDA	#$6e	; 110 n
a3c5  8d 88 37   	STA	D3788
a3c8  a9 06      	LDA	#$06	; 6 .
a3ca  8d 89 37   	STA	D3789
a3cd  a9 20      	LDA	#$20	; 32  
a3cf  a0 00      	LDY	#$00	; 0 .
a3d1  91 ad      	STA	(Zad),Y
a3d3  20 4c a2   La3d3:	JSR	Sa24c
a3d6  20 83 a2   	JSR	Sa283
a3d9  20 4c a2   	JSR	Sa24c
a3dc  20 df 88   	JSR	S88df
a3df  20 84 88   	JSR	S8884
a3e2  ad fc 02   	LDA	D02fc
a3e5  c9 ff      	CMP	#$ff	; 255 .
a3e7  f0 ea      	BEQ	La3d3
a3e9  20 56 96   	JSR	S9656
a3ec  ad 86 37   	LDA	D3786
a3ef  c9 9b      	CMP	#$9b	; 155 .
a3f1  f0 13      	BEQ	La406
a3f3  a0 31      	LDY	#$31	; 49 1
a3f5  20 8c a3   	JSR	Sa38c
a3f8  f0 d9      	BEQ	La3d3
a3fa  20 91 86   	JSR	S8691
a3fd  ad 86 37   	LDA	D3786
a400  20 b9 97   	JSR	S97b9
a403  4c d3 a3   	JMP	La3d3
a406  20 62 a2   La406:	JSR	Sa262
a409  20 cb 9f   	JSR	S9fcb
a40c  a9 9b      	LDA	#$9b	; 155 .
a40e  a0 00      	LDY	#$00	; 0 .
a410  91 ad      	STA	(Zad),Y
a412  a9 9b      	LDA	#$9b	; 155 .
a414  20 f7 97   	JSR	S97f7
a417  20 8b 86   	JSR	S868b
a41a  a0 00      	LDY	#$00	; 0 .
a41c  b9 00 06   	LDA	D0600,Y
a41f  c9 9b      	CMP	#$9b	; 155 .
a421  f0 16      	BEQ	La439
a423  b9 00 06   La423:	LDA	D0600,Y
a426  99 70 06   	STA	D0670,Y
a429  c9 9b      	CMP	#$9b	; 155 .
a42b  f0 0c      	BEQ	La439
a42d  c8         	INY
a42e  aa         	TAX
a42f  98         	TYA
a430  48         	PHA
a431  8a         	TXA
a432  20 e2 97   	JSR	S97e2
a435  68         	PLA
a436  a8         	TAY
a437  d0 ea      	BNE	La423
a439  a9 9b      La439:	LDA	#$9b	; 155 .
a43b  4c e2 97   	JMP	S97e2
a43e             	.byte	$a5,$d4,$0a,$0a,$0a,$0a,$85,$87	; "........"
a446             	.byte	$a9,$36,$85,$88,$a9,$10,$85,$b8	; ".6......"
a44e             	.byte	$60,$20,$62,$a1,$20,$ef,$a1,$20	; "` b. .. "
a456             	.byte	$b5,$a2,$20,$56,$96,$10,$05,$85	; ".. V...."
a45e             	.byte	$11,$4c,$a7,$a4,$ad,$86,$37,$c9	; ".L....7."
a466             	.byte	$1b,$f0,$0d,$a0,$4d,$20,$8c,$a3	; "....M .."
a46e             	.byte	$f0,$e5,$20,$39,$94,$4c,$55,$a4	; ".. 9.LU."
a476             	.byte	$20,$62,$a1,$20,$3e,$a4,$a0,$00	; " b. >..."
a47e             	.byte	$98,$91,$87,$a9,$80,$85,$cf,$a2	; "........"
a486             	.byte	$08,$a0,$00,$b1,$ad,$c9,$a0,$f0	; "........"
a48e             	.byte	$06,$b1,$87,$05,$cf,$91,$87,$46	; ".......F"
a496             	.byte	$cf,$20,$df,$a1,$ca,$d0,$ea,$20	; ". ..... "
a49e             	.byte	$33,$a2,$20,$df,$a1,$c6,$b8,$d0	; "3. ....."
a4a6             	.byte	$d5,$20,$ba,$82,$20,$c1,$82,$20	; ". .. .. "
a4ae             	.byte	$c8,$82,$20,$8b,$86,$4c,$ff,$8c	; ".. ..L.."
a4b6             	.byte	$80,$00,$67,$80,$00,$67,$80,$00	; "..g..g.."
a4be             	.byte	$67,$80,$00,$71,$80,$00,$67,$c4	; "g..q..g."
a4c6             	.byte	$4e,$45,$00,$67,$a0,$1e,$a2,$31	; "NE.g...1"
a4ce             	.byte	$4c,$ed,$87,$c5,$55,$52,$54,$00	; "L...URT."
a4d6             	.byte	$67,$4c,$c2,$9e,$c5,$53,$4c,$41	; "gL...SLA"
a4de             	.byte	$46,$00,$67,$4c,$cc,$9e,$a9,$00	; "F.gL...."
a4e6             	.byte	$67,$4c,$66,$87,$a8,$00,$67,$4c	; "gLf...gL"
a4ee             	.byte	$4d,$ae,$d0,$4f,$54,$53,$00,$71	; "M..OTS.q"
a4f6             	.byte	$a9,$01,$8d,$9b,$37,$20,$e2,$83	; "....7 .."
a4fe             	.byte	$20,$77,$84,$d0,$03,$4c,$6f,$88	; " w...Lo."
a506             	.byte	$4c,$d6,$82,$d0,$4f,$01,$71,$4c	; "L...O.qL"
a50e             	.byte	$18,$a5,$d4,$55,$50,$54,$55,$4f	; "...UPTUO"
a516             	.byte	$01,$71,$a9,$02,$8d,$9b,$37,$4c	; ".q....7L"
a51e             	.byte	$fb,$a4,$d8,$50,$00,$71,$20,$c3	; "...P.q ."
a526             	.byte	$b1,$a9,$00,$f0,$09,$c4,$50,$00	; "......P."
a52e             	.byte	$71,$20,$c3,$b1,$a9,$01,$a4,$d3	; "q ......"
a536             	.byte	$99,$b1,$04,$4c,$89,$b6,$d5,$50	; "...L...P"
a53e             	.byte	$00,$71,$20,$c3,$b1,$a9,$02,$d0	; ".q ....."
a546             	.byte	$ed,$c5,$50,$00,$71,$20,$c3,$b1	; "..P.q .."
a54e             	.byte	$a9,$03,$d0,$e2,$ce,$57,$4f,$44	; ".....WOD"
a556             	.byte	$4e,$45,$50,$00,$71,$4c,$2f,$a5	; "NEP.qL/."
a55e             	.byte	$d0,$55,$4e,$45,$50,$00,$71,$4c	; ".UNEP.qL"
a566             	.byte	$40,$a5,$cb,$41,$45,$52,$42,$00	; "@..AERB."
a56e             	.byte	$67,$00,$d4,$49,$44,$45,$00,$71	; "g..IDE.q"
a576             	.byte	$4c,$7d,$a5,$c4,$45,$00,$71,$20	; "L}..E.q "
a57e             	.byte	$80,$84,$f0,$23,$a9,$01,$85,$8d	; "...#...."
a586             	.byte	$20,$7d,$8d,$9c,$1d,$a9,$00,$85	; " }......"
a58e             	.byte	$8d,$20,$09,$a6,$20,$40,$8d,$a5	; ". .. @.."
a596             	.byte	$89,$8d,$10,$31,$a5,$8a,$8d,$11	; "...1...."
a59e             	.byte	$31,$20,$9b,$82,$4c,$b4,$a5,$20	; "1 ..L.. "
a5a6             	.byte	$09,$a6,$ad,$10,$31,$85,$89,$ad	; "....1..."
a5ae             	.byte	$11,$31,$85,$8a,$f0,$38,$20,$ba	; ".1...8 ."
a5b6             	.byte	$82,$20,$ee,$84,$20,$3c,$8e,$d0	; ". .. <.."
a5be             	.byte	$06,$20,$f2,$a5,$4c,$3d,$a3,$20	; ". ..L=. "
a5c6             	.byte	$7d,$8e,$d0,$16,$20,$dd,$82,$20	; "}... .. "
a5ce             	.byte	$ee,$84,$20,$9a,$bc,$f0,$17,$20	; ".. .... "
a5d6             	.byte	$3c,$8e,$d0,$06,$20,$f2,$a5,$4c	; "<... ..L"
a5de             	.byte	$d0,$a5,$20,$af,$8d,$20,$ff,$8c	; ".. .. .."
a5e6             	.byte	$20,$40,$8d,$4c,$bd,$87,$20,$2a	; " @.L.. *"
a5ee             	.byte	$86,$4c,$3d,$a3,$20,$03,$bd,$d0	; ".L=. ..."
a5f6             	.byte	$06,$20,$56,$bd,$4c,$98,$bd,$20	; ". V.L.. "
a5fe             	.byte	$02,$87,$20,$e3,$84,$20,$89,$99	; ".. .. .."
a606             	.byte	$4c,$a4,$bd,$20,$62,$a1,$20,$0a	; "L.. b. ."
a60e             	.byte	$a2,$a9,$00,$85,$b6,$8d,$88,$37	; ".......7"
a616             	.byte	$ad,$c1,$37,$18,$69,$0f,$8d,$89	; "..7.i..."
a61e             	.byte	$37,$20,$ff,$8c,$20,$91,$86,$a9	; "7 .. ..."
a626             	.byte	$00,$8d,$a4,$37,$a9,$d8,$85,$89	; "...7...."
a62e             	.byte	$a9,$3b,$85,$8a,$a0,$28,$a9,$80	; ".;...(.."
a636             	.byte	$91,$89,$88,$d0,$fb,$a0,$1b,$a2	; "........"
a63e             	.byte	$10,$bd,$30,$81,$91,$89,$88,$ca	; "..0....."
a646             	.byte	$10,$f7,$60,$d3,$4e,$44,$45,$00	; "..`.NDE."
a64e             	.byte	$71,$20,$09,$a6,$20,$b7,$bd,$4c	; "q .. ..L"
a656             	.byte	$3d,$a3,$c8,$53,$44,$45,$01,$71	; "=..SDE.q"
a65e             	.byte	$20,$95,$b5,$20,$09,$a6,$20,$3e	; " .. .. >"
a666             	.byte	$a4,$a0,$00,$b1,$87,$a2,$08,$0a	; "........"
a66e             	.byte	$48,$b0,$06,$20,$9c,$a1,$4c,$7a	; "H.. ..Lz"
a676             	.byte	$a6,$20,$a0,$a1,$20,$25,$a2,$68	; ". .. %.h"
a67e             	.byte	$ca,$d0,$ec,$20,$98,$a1,$20,$25	; "... .. %"
a686             	.byte	$a2,$20,$33,$a2,$c6,$b8,$d0,$d9	; ". 3....."
a68e             	.byte	$4c,$4f,$a4,$cf,$54,$00,$71,$a5	; "LO..T.q."
a696             	.byte	$9c,$d0,$03,$4c,$4d,$87,$20,$8e	; "...LM. ."
a69e             	.byte	$82,$a0,$00,$b1,$9b,$c9,$05,$f0	; "........"
a6a6             	.byte	$03,$4c,$bd,$87,$a0,$00,$b1,$89	; ".L......"
a6ae             	.byte	$20,$2a,$8e,$d0,$03,$4c,$f1,$87	; " *...L.."
a6b6             	.byte	$20,$dd,$82,$20,$56,$82,$20,$52	; " .. V. R"
a6be             	.byte	$82,$a5,$87,$c9,$00,$d0,$06,$a5	; "........"
a6c6             	.byte	$88,$c9,$31,$f0,$08,$20,$48,$86	; "..1.. H."
a6ce             	.byte	$d0,$03,$4c,$04,$88,$20,$f9,$84	; "..L.. .."
a6d6             	.byte	$a9,$00,$85,$b8,$20,$9b,$82,$20	; ".... .. "
a6de             	.byte	$ef,$82,$20,$c8,$82,$20,$c1,$82	; ".. .. .."
a6e6             	.byte	$a5,$88,$f0,$1b,$20,$25,$83,$20	; ".... %. "
a6ee             	.byte	$66,$82,$20,$22,$8e,$d0,$b2,$20	; "f. "... "
a6f6             	.byte	$25,$83,$20,$56,$82,$e6,$b8,$20	; "%. V... "
a6fe             	.byte	$26,$82,$20,$64,$83,$d0,$e1,$20	; "&. d... "
a706             	.byte	$e2,$8f,$a5,$b8,$85,$8b,$a9,$00	; "........"
a70e             	.byte	$85,$8c,$20,$f4,$81,$a0,$00,$a9	; ".. ....."
a716             	.byte	$22,$91,$87,$20,$ab,$8d,$20,$5b	; "".. .. ["
a71e             	.byte	$83,$20,$e2,$8f,$20,$36,$82,$20	; ". .. 6. "
a726             	.byte	$e4,$81,$20,$ab,$8d,$20,$3d,$86	; ".. .. =."
a72e             	.byte	$20,$9e,$96,$20,$e0,$96,$20,$40	; " .. .. @"
a736             	.byte	$8d,$a0,$01,$b1,$89,$c9,$1e,$d0	; "........"
a73e             	.byte	$07,$c8,$b1,$89,$c9,$31,$f0,$1a	; ".....1.."
a746             	.byte	$a0,$00,$b1,$89,$09,$08,$91,$89	; "........"
a74e             	.byte	$20,$b0,$86,$20,$5b,$83,$20,$3c	; " .. [. <"
a756             	.byte	$8d,$20,$e8,$81,$20,$e6,$82,$4c	; ". .. ..L"
a75e             	.byte	$28,$a7,$20,$3c,$8d,$20,$b0,$86	; "(. <. .."
a766             	.byte	$20,$e3,$84,$20,$89,$99,$20,$06	; " .. .. ."
a76e             	.byte	$99,$20,$44,$45,$46,$49,$4e,$45	; ". DEFINE"
a776             	.byte	$44,$9b,$20,$3c,$8d,$20,$e3,$84	; "D. <. .."
a77e             	.byte	$20,$6d,$82,$20,$12,$82,$4c,$d6	; " m. ..L."
a786             	.byte	$82,$d0,$59,$45,$4b,$00,$67,$ad	; "..YEK.g."
a78e             	.byte	$fc,$02,$c9,$ff,$d0,$03,$4c,$cc	; "......L."
a796             	.byte	$9e,$4c,$c2,$9e,$ce,$55,$52,$01	; ".L...UR."
a79e             	.byte	$67,$20,$9a,$8e,$a5,$8a,$f0,$06	; "g ......"
a7a6             	.byte	$20,$31,$8d,$4c,$7c,$9e,$4c,$3c	; " 1.L|.L<"
a7ae             	.byte	$9f,$d9,$4f,$4a,$01,$67,$a9,$03	; "..OJ.g.."
a7b6             	.byte	$20,$ad,$8f,$a4,$d4,$b9,$78,$02	; " .....x."
a7be             	.byte	$c9,$0f,$d0,$0c,$20,$44,$da,$a9	; ".... D.."
a7c6             	.byte	$c0,$85,$d4,$e6,$d5,$4c,$da,$ae	; ".....L.."
a7ce             	.byte	$a8,$b9,$93,$81,$85,$d4,$20,$aa	; "...... ."
a7d6             	.byte	$d9,$4c,$da,$ae,$c2,$59,$4f,$4a	; ".L...YOJ"
a7de             	.byte	$01,$67,$a9,$03,$20,$ad,$8f,$a4	; ".g.. ..."
a7e6             	.byte	$d4,$b9,$84,$02,$d0,$03,$4c,$c2	; "......L."
a7ee             	.byte	$9e,$4c,$cc,$9e,$c5,$4c,$44,$44	; ".L...LDD"
a7f6             	.byte	$41,$50,$01,$67,$a9,$07,$20,$ad	; "AP.g.. ."
a7fe             	.byte	$8f,$a4,$d4,$a9,$e4,$38,$f9,$70	; ".....8.p"
a806             	.byte	$02,$85,$d4,$4c,$d4,$a7,$c2,$45	; "...L...E"
a80e             	.byte	$4c,$44,$44,$41,$50,$01,$67,$a9	; "LDDAP.g."
a816             	.byte	$07,$20,$ad,$8f,$a4,$d4,$b9,$7c	; ". .....|"
a81e             	.byte	$02,$d0,$03,$4c,$c2,$9e,$4c,$cc	; "...L..L."
a826             	.byte	$9e,$d4,$49,$41,$57,$01,$71,$20	; "..IAW.q "
a82e             	.byte	$8e,$8f,$a5,$d4,$8d,$20,$02,$a5	; "..... .."
a836             	.byte	$d5,$8d,$21,$02,$ad,$20,$02,$0d	; "..!.. .."
a83e             	.byte	$21,$02,$d0,$f8,$60,$c5,$4b,$41	; "!...`.KA"
a846             	.byte	$4d,$02,$71,$20,$b0,$86,$20,$40	; "M.q .. @"
a84e             	.byte	$8d,$20,$dd,$82,$20,$f9,$8d,$4c	; ". .. ..L"
a856             	.byte	$12,$82,$d4,$53,$52,$49,$46,$54	; "...SRIFT"
a85e             	.byte	$55,$42,$01,$67,$4c,$69,$a8,$c6	; "UB.gLi.."
a866             	.byte	$42,$01,$67,$20,$a0,$8e,$f0,$0e	; "B.g ...."
a86e             	.byte	$20,$18,$8f,$20,$2c,$8f,$e6,$b7	; " .. ,..."
a876             	.byte	$20,$73,$95,$4c,$d4,$9e,$20,$6d	; " s.L.. m"
a87e             	.byte	$82,$4c,$d4,$9e,$d4,$53,$52,$49	; ".L...SRI"
a886             	.byte	$46,$01,$67,$20,$a0,$8e,$f0,$17	; "F.g ...."
a88e             	.byte	$20,$18,$8f,$20,$dd,$82,$20,$e6	; " .. .. ."
a896             	.byte	$8f,$a0,$00,$a9,$23,$91,$89,$c8	; "....#..."
a89e             	.byte	$b1,$87,$91,$89,$4c,$d4,$9e,$a0	; "....L..."
a8a6             	.byte	$00,$84,$b7,$b1,$89,$c9,$05,$f0	; "........"
a8ae             	.byte	$1b,$a2,$3a,$c9,$06,$d0,$02,$a2	; "..:....."
a8b6             	.byte	$22,$8a,$99,$00,$06,$c8,$84,$b8	; ""......."
a8be             	.byte	$20,$66,$82,$20,$32,$8f,$20,$73	; " f. 2. s"
a8c6             	.byte	$95,$4c,$d4,$9e,$20,$66,$82,$4c	; ".L.. f.L"
a8ce             	.byte	$d4,$9e,$bd,$01,$5a,$4c,$de,$a8	; "....ZL.."
a8d6             	.byte	$d0,$4c,$41,$55,$51,$45,$02,$67	; ".LAUQE.g"
a8de             	.byte	$20,$40,$8d,$20,$64,$83,$20,$40	; " @. d. @"
a8e6             	.byte	$8d,$20,$7d,$8d,$a8,$f4,$28,$f0	; ". }...(."
a8ee             	.byte	$03,$4c,$cc,$9e,$4c,$c2,$9e,$20	; ".L..L.. "
a8f6             	.byte	$cb,$8e,$08,$20,$dd,$82,$20,$2e	; "... .. ."
a8fe             	.byte	$83,$20,$5b,$83,$20,$cb,$8e,$f0	; ". [. ..."
a906             	.byte	$07,$28,$d0,$14,$a9,$ff,$d0,$06	; ".(......"
a90e             	.byte	$28,$d0,$03,$20,$4d,$94,$08,$4c	; "(.. M..L"
a916             	.byte	$d9,$8d,$20,$6d,$82,$20,$81,$82	; ".. m. .."
a91e             	.byte	$a5,$8c,$d0,$05,$a5,$8a,$4c,$14	; "......L."
a926             	.byte	$a9,$a5,$8a,$f0,$df,$20,$b3,$8d	; "..... .."
a92e             	.byte	$20,$af,$8d,$20,$66,$82,$20,$7a	; " .. f. z"
a936             	.byte	$82,$20,$7d,$8d,$a8,$f4,$20,$44	; ". }... D"
a93e             	.byte	$8d,$20,$40,$8d,$28,$f0,$d3,$d0	; ". @.(..."
a946             	.byte	$c3,$c6,$49,$02,$67,$20,$ba,$82	; "..I.g .."
a94e             	.byte	$20,$80,$84,$f0,$13,$a9,$01,$85	; " ......."
a956             	.byte	$8d,$a9,$00,$85,$8e,$20,$7d,$8d	; "..... }."
a95e             	.byte	$9c,$1d,$20,$40,$8d,$20,$dd,$82	; ".. @. .."
a966             	.byte	$20,$ab,$8d,$20,$aa,$8e,$20,$01	; " .. .. ."
a96e             	.byte	$8e,$b0,$14,$d0,$09,$20,$3c,$8d	; "..... <."
a976             	.byte	$20,$2e,$83,$4c,$a2,$a7,$20,$3c	; " ..L.. <"
a97e             	.byte	$8d,$20,$25,$83,$4c,$a2,$a7,$4c	; ". %.L..L"
a986             	.byte	$1b,$88,$c5,$50,$59,$54,$01,$6b	; "...PYT.k"
a98e             	.byte	$20,$40,$8d,$20,$89,$99,$4c,$3c	; " @. ..L<"
a996             	.byte	$9f,$d4,$4e,$49,$52,$50,$01,$6b	; "..NIRP.k"
a99e             	.byte	$4c,$a5,$a9,$d2,$50,$01,$6b,$20	; "L...P.k "
a9a6             	.byte	$40,$8d,$20,$89,$99,$20,$38,$8d	; "@. .. 8."
a9ae             	.byte	$20,$a3,$8d,$a5,$8d,$10,$17,$20	; " ...... "
a9b6             	.byte	$80,$84,$f0,$12,$20,$2f,$86,$4c	; ".... /.L"
a9be             	.byte	$3c,$9f,$d7,$4f,$48,$53,$01,$67	; "<..OHS.g"
a9c6             	.byte	$20,$40,$8d,$20,$80,$99,$20,$2a	; " @. .. *"
a9ce             	.byte	$86,$4c,$3c,$9f,$c4,$52,$4f,$57	; ".L<..ROW"
a9d6             	.byte	$02,$6b,$20,$fc,$8e,$20,$f9,$84	; ".k .. .."
a9de             	.byte	$20,$09,$8f,$20,$2c,$8f,$20,$e3	; " .. ,. ."
a9e6             	.byte	$84,$20,$32,$8f,$20,$73,$95,$4c	; ". 2. s.L"
a9ee             	.byte	$d4,$9e,$d4,$55,$50,$46,$02,$67	; "...UPF.g"
a9f6             	.byte	$20,$aa,$8e,$20,$40,$8d,$20,$e2	; " .. @. ."
a9fe             	.byte	$8f,$20,$f8,$81,$20,$e4,$81,$20	; ". .. .. "
aa06             	.byte	$25,$83,$4c,$d4,$9e,$d4,$53,$49	; "%.L...SI"
aa0e             	.byte	$4c,$02,$67,$20,$40,$8d,$20,$e2	; "L.g @. ."
aa16             	.byte	$8f,$20,$e4,$81,$20,$40,$8d,$20	; ". .. @. "
aa1e             	.byte	$ea,$8f,$20,$42,$82,$20,$36,$82	; ".. B. 6."
aa26             	.byte	$20,$2e,$83,$4c,$d4,$9e,$c5,$43	; " ..L...C"
aa2e             	.byte	$4e,$45,$54,$4e,$45,$53,$02,$6b	; "NETNES.k"
aa36             	.byte	$4c,$3d,$aa,$c5,$53,$02,$6b,$20	; "L=..S.k "
aa3e             	.byte	$92,$8e,$f0,$09,$20,$e2,$8f,$20	; ".... .. "
aa46             	.byte	$e4,$81,$4c,$4e,$aa,$20,$dd,$82	; "..LN. .."
aa4e             	.byte	$20,$92,$8e,$f0,$0f,$20,$ea,$8f	; " .... .."
aa56             	.byte	$20,$42,$82,$20,$36,$82,$20,$2e	; " B. 6. ."
aa5e             	.byte	$83,$4c,$d4,$9e,$a5,$8a,$f0,$15	; ".L......"
aa66             	.byte	$20,$64,$83,$20,$ab,$8d,$20,$0d	; " d. .. ."
aa6e             	.byte	$85,$20,$25,$83,$20,$3c,$8d,$20	; ". %. <. "
aa76             	.byte	$16,$82,$4c,$d7,$9e,$20,$25,$83	; "..L.. %."
aa7e             	.byte	$4c,$d4,$9e,$d0,$52,$45,$42,$4d	; "L...REBM"
aa86             	.byte	$55,$4e,$01,$67,$20,$5c,$8f,$f0	; "UN.g \.."
aa8e             	.byte	$30,$d0,$2b,$d0,$54,$53,$49,$4c	; "0.+.TSIL"
aa96             	.byte	$01,$67,$20,$92,$8e,$f0,$22,$d0	; ".g ..."."
aa9e             	.byte	$1d,$d0,$44,$52,$4f,$57,$01,$67	; "..DROW.g"
aaa6             	.byte	$20,$92,$8e,$f0,$11,$d0,$12,$d0	; " ......."
aaae             	.byte	$45,$4d,$41,$4e,$01,$67,$20,$f9	; "EMAN.g ."
aab6             	.byte	$8d,$20,$74,$84,$d0,$03,$4c,$cc	; ". t...L."
aabe             	.byte	$9e,$4c,$c2,$9e,$d0,$59,$54,$50	; ".L...YTP"
aac6             	.byte	$4d,$45,$01,$67,$20,$40,$8d,$a5	; "ME.g @.."
aace             	.byte	$8a,$f0,$ee,$a0,$00,$b1,$89,$c9	; "........"
aad6             	.byte	$01,$d0,$03,$20,$6a,$82,$20,$b5	; "... j. ."
aade             	.byte	$8e,$f0,$de,$d0,$d9,$d0,$52,$45	; "......RE"
aae6             	.byte	$42,$4d,$45,$4d,$02,$67,$20,$aa	; "BMEM.g ."
aaee             	.byte	$8e,$20,$40,$8d,$a5,$8c,$f0,$c6	; ". @....."
aaf6             	.byte	$20,$b3,$8d,$20,$af,$8d,$20,$7a	; " .. .. z"
aafe             	.byte	$82,$20,$7d,$8d,$a8,$f4,$20,$44	; ". }... D"
ab06             	.byte	$8d,$28,$f0,$06,$20,$81,$82,$4c	; ".(.. ..L"
ab0e             	.byte	$ef,$aa,$20,$40,$8d,$4c,$c2,$9e	; ".. @.L.."
ab16             	.byte	$c7,$4e,$49,$48,$54,$01,$67,$20	; ".NIHT.g "
ab1e             	.byte	$f9,$8d,$20,$dd,$82,$20,$74,$84	; ".. .. t."
ab26             	.byte	$d0,$03,$4c,$d9,$87,$4c,$d4,$9e	; "..L..L.."
ab2e             	.byte	$c4,$4e,$41,$02,$6b,$20,$01,$8e	; ".NA.k .."
ab36             	.byte	$b0,$3f,$d0,$0a,$20,$01,$8e,$b0	; ".?.. ..."
ab3e             	.byte	$41,$d0,$08,$4c,$c2,$9e,$20,$01	; "A..L.. ."
ab46             	.byte	$8e,$b0,$37,$4c,$cc,$9e,$d2,$4f	; "..7L...O"
ab4e             	.byte	$02,$6b,$20,$01,$8e,$b0,$22,$d0	; ".k ..."."
ab56             	.byte	$08,$20,$01,$8e,$b0,$24,$4c,$c2	; ". ...$L."
ab5e             	.byte	$9e,$20,$01,$8e,$b0,$1c,$f0,$f6	; ". ......"
ab66             	.byte	$4c,$cc,$9e,$d4,$4f,$4e,$01,$67	; "L...ON.g"
ab6e             	.byte	$20,$01,$8e,$b0,$0d,$f0,$f1,$d0	; " ......."
ab76             	.byte	$e5,$20,$64,$83,$20,$40,$8d,$20	; ". d. @. "
ab7e             	.byte	$2e,$83,$4c,$1b,$88,$d4,$41,$45	; "..L...AE"
ab86             	.byte	$50,$45,$52,$02,$71,$20,$9a,$8e	; "PER.q .."
ab8e             	.byte	$20,$dd,$82,$20,$ab,$8d,$20,$82	; " .. .. ."
ab96             	.byte	$8f,$20,$ca,$8f,$a5,$d4,$10,$03	; ". ......"
ab9e             	.byte	$4c,$bd,$87,$a5,$d4,$f0,$39,$20	; "L.....9 "
aba6             	.byte	$d2,$d9,$a5,$d4,$d0,$02,$c6,$d5	; "........"
abae             	.byte	$c6,$d4,$20,$aa,$d9,$20,$bf,$95	; ".. .. .."
abb6             	.byte	$20,$3c,$8d,$20,$ab,$8d,$20,$5b	; " <. .. ["
abbe             	.byte	$83,$20,$dd,$82,$20,$ab,$8d,$20	; ". .. .. "
abc6             	.byte	$2e,$83,$20,$7d,$8d,$9e,$7b,$20	; ".. }..{ "
abce             	.byte	$3c,$8d,$ad,$9b,$37,$d0,$09,$20	; "<...7.. "
abd6             	.byte	$25,$83,$20,$af,$85,$4c,$a1,$ab	; "%. ..L.."
abde             	.byte	$4c,$3c,$8d,$d3,$45,$56,$49,$54	; "L<..EVIT"
abe6             	.byte	$49,$4d,$49,$52,$50,$2e,$00,$71	; "IMIRP..q"
abee             	.byte	$20,$d1,$bc,$a0,$00,$b1,$89,$20	; " ...... "
abf6             	.byte	$2a,$8e,$d0,$06,$20,$89,$99,$4c	; "*... ..L"
abfe             	.byte	$2a,$86,$60,$c5,$4e,$49,$4d,$41	; "*.`.NIMA"
ac06             	.byte	$58,$45,$2e,$01,$67,$20,$8e,$8f	; "XE..g .."
ac0e             	.byte	$a0,$00,$b1,$d4,$85,$d4,$84,$d5	; "........"
ac16             	.byte	$4c,$d4,$a7,$d4,$49,$53,$4f,$50	; "L...ISOP"
ac1e             	.byte	$45,$44,$2e,$02,$71,$20,$9a,$8f	; "ED..q .."
ac26             	.byte	$20,$ff,$85,$20,$d2,$d9,$a5,$d4	; " .. ...."
ac2e             	.byte	$85,$87,$a5,$d5,$85,$88,$20,$0f	; "...... ."
ac36             	.byte	$86,$20,$d2,$d9,$a5,$d4,$a0,$00	; ". ......"
ac3e             	.byte	$91,$87,$60,$cc,$4c,$41,$43,$2e	; "..`.LAC."
ac46             	.byte	$01,$71,$20,$8e,$8f,$6c,$d4,$00	; ".q ..l.."
ac4e             	.byte	$c9,$49,$43,$53,$41,$01,$67,$20	; ".ICSA.g "
ac56             	.byte	$15,$8f,$20,$44,$da,$a0,$01,$b1	; ".. D...."
ac5e             	.byte	$89,$85,$d4,$4c,$d4,$a7,$c5,$4c	; "...L...L"
ac66             	.byte	$43,$59,$43,$45,$52,$00,$71,$4c	; "CYCER.qL"
ac6e             	.byte	$33,$90,$d3,$45,$44,$4f,$4e,$00	; "3..EDON."
ac76             	.byte	$67,$a5,$a9,$85,$d4,$a5,$aa,$85	; "g......."
ac7e             	.byte	$d5,$4c,$d4,$a7,$d4,$4e,$55,$4f	; ".L...NUO"
ac86             	.byte	$43,$01,$67,$20,$92,$8e,$f0,$10	; "C.g ...."
ac8e             	.byte	$20,$bf,$8e,$20,$44,$da,$20,$2c	; " .. D. ,"
ac96             	.byte	$8f,$a5,$b5,$85,$d4,$4c,$d4,$a7	; ".....L.."
ac9e             	.byte	$20,$44,$da,$a5,$8a,$f0,$f6,$e6	; " D......"
aca6             	.byte	$d4,$d0,$02,$e6,$d5,$20,$6d,$82	; "..... m."
acae             	.byte	$4c,$a1,$ac,$c4,$4e,$55,$4f,$52	; "L...NUOR"
acb6             	.byte	$01,$67,$20,$82,$8f,$20,$83,$ad	; ".g .. .."
acbe             	.byte	$4c,$da,$ae,$d4,$4e,$49,$01,$67	; "L...NI.g"
acc6             	.byte	$20,$82,$8f,$20,$95,$ad,$4c,$da	; " .. ..L."
acce             	.byte	$ae,$d2,$45,$44,$4e,$49,$41,$4d	; "..EDNIAM"
acd6             	.byte	$45,$52,$02,$67,$20,$9a,$8f,$20	; "ER.g .. "
acde             	.byte	$95,$ad,$20,$fb,$85,$a2,$05,$b5	; ".. ....."
ace6             	.byte	$e0,$95,$d4,$ca,$10,$f9,$20,$95	; "...... ."
acee             	.byte	$ad,$20,$b6,$dd,$20,$0f,$86,$20	; ". .. .. "
acf6             	.byte	$fb,$ac,$4c,$da,$ae         	; "..L.."

acfb  20 ff 85   Sacfb:	JSR	S85ff
acfe  a2 05      	LDX	#$05	; 5 .
ad00  b5 d4      Lad00:	LDA	Zd4,X
ad02  48         	PHA
ad03  ca         	DEX
ad04  10 fa      	BPL	Lad00
ad06  20 28 db   	JSR	Sdb28
ad09  b0 19      	BCS	Lad24
ad0b  20 95 ad   	JSR	Sad95
ad0e  20 13 86   	JSR	S8613
ad11  20 db da   	JSR	Sdadb
ad14  20 b6 dd   	JSR	Sddb6
ad17  a2 00      	LDX	#$00	; 0 .
ad19  68         Lad19:	PLA
ad1a  95 d4      	STA	Zd4,X
ad1c  e8         	INX
ad1d  e0 06      	CPX	#$06	; 6 .
ad1f  d0 f8      	BNE	Lad19
ad21  4c 60 da   	JMP	Sda60
ad24  4c b7 87   Lad24:	JMP	L87b7
ad27             	.byte	$cd,$4f,$44,$4e,$41,$52,$01,$67	; ".ODNAR.g"
ad2f             	.byte	$a0,$f6,$20,$5d,$85,$a0,$2f,$20	; ".. ]../ "
ad37             	.byte	$e1,$85,$20,$db,$da,$a0,$36,$20	; ".. ...6 "
ad3f             	.byte	$e1,$85,$20,$fb,$ac,$20,$7e,$ad	; ".. .. ~."
ad47             	.byte	$a9,$3f,$8d,$76,$05,$85,$d4,$20	; ".?.v... "
ad4f             	.byte	$fb,$85,$20,$82,$8f,$20,$b6,$dd	; ".. .. .."
ad57             	.byte	$a5,$d4,$30,$11,$d0,$03,$4c,$da	; "..0...L."
ad5f             	.byte	$ae,$20,$0f,$86,$20,$db,$da,$20	; ". .. .. "
ad67             	.byte	$95,$ad,$4c,$da,$ae,$4c,$bd,$87	; "..L..L.."
ad6f             	.byte	$cd,$4f,$44,$4e,$41,$52,$45,$52	; ".ODNARER"
ad77             	.byte	$00,$71                  	; ".q"

ad79  a0 39      Sad79:	LDY	#$39	; 57 9
ad7b  20 dd 85   	JSR	S85dd
ad7e  a0 f6      	LDY	#$f6	; 246 .
ad80  4c 9c 85   	JMP	L859c
ad83             	.byte	$a0,$00,$20,$e1,$85,$a5,$d4,$30	; ".. ....0"
ad8b             	.byte	$06,$20,$66,$da,$4c,$95,$ad,$20	; ". f.L.. "
ad93             	.byte	$60,$da                  	; "`."

ad95  a5 d4      Sad95:	LDA	Zd4
ad97  29 40      	AND	#$40	; 64 @
ad99  d0 03      	BNE	Lad9e
ad9b  4c 44 da   	JMP	Sda44
ad9e  a5 d4      Lad9e:	LDA	Zd4
ada0  29 3f      	AND	#$3f	; 63 ?
ada2  aa         	TAX
ada3  e8         	INX
ada4  e8         	INX
ada5  a9 00      	LDA	#$00	; 0 .
ada7  e0 06      Lada7:	CPX	#$06	; 6 .
ada9  10 05      	BPL	Ladb0
adab  95 d4      	STA	Zd4,X
adad  e8         	INX
adae  d0 f7      	BNE	Lada7
adb0  60         Ladb0:	RTS
adb1             	.byte	$d2,$41,$48,$43,$01,$67,$a9,$ff	; ".AHC.g.."
adb9             	.byte	$20,$ad,$8f,$20,$e6,$8f,$a0,$00	; " .. ...."
adc1             	.byte	$a9,$23,$91,$89,$c8,$a5,$d4,$91	; ".#......"
adc9             	.byte	$89,$4c,$d4,$9e,$d4,$53,$41,$4c	; ".L...SAL"
add1             	.byte	$54,$55,$42,$01,$67,$4c,$dd,$ad	; "TUB.gL.."
add9             	.byte	$cc,$42,$01,$67,$20,$a0,$8e,$f0	; ".B.g ..."
ade1             	.byte	$0e,$20,$18,$8f,$20,$2c,$8f,$c6	; ". .. ,.."
ade9             	.byte	$b5,$20,$73,$95,$4c,$d4,$9e,$20	; ". s.L.. "
adf1             	.byte	$64,$83,$20,$0d,$85,$20,$40,$8d	; "d. .. @."
adf9             	.byte	$20,$64,$83,$20,$dd,$82,$20,$81	; " d. .. ."
ae01             	.byte	$82,$d0,$09,$20,$2e,$83,$4c,$d4	; "... ..L."
ae09             	.byte	$9e,$20,$56,$82,$20,$81,$82,$d0	; ". V. ..."
ae11             	.byte	$f8,$20,$08,$82,$4c,$d4,$9e,$d4	; ". ..L..."
ae19             	.byte	$53,$41,$4c,$01,$67,$20,$a0,$8e	; "SAL.g .."
ae21             	.byte	$f0,$1c,$20,$18,$8f,$20,$2c,$8f	; ".. .. ,."
ae29             	.byte	$c6,$b8,$20,$e6,$8f,$a0,$00,$a9	; ".. ....."
ae31             	.byte	$23,$91,$89,$a6,$b8,$bd,$00,$06	; "#......."
ae39             	.byte	$c8,$91,$89,$4c,$d4,$9e,$20,$dd	; "...L.. ."
ae41             	.byte	$82,$20,$25,$83,$20,$56,$82,$d0	; ". %. V.."
ae49             	.byte	$f8,$4c,$a5,$a8,$20,$8e,$82,$a0	; ".L.. ..."
ae51             	.byte	$00,$b1,$89,$f0,$43,$c9,$13,$d0	; "....C..."
ae59             	.byte	$42,$a9,$ff,$85,$8d,$20,$9b,$82	; "B.... .."
ae61             	.byte	$20,$dd,$82,$20,$ac,$83,$20,$a0	; " .. .. ."
ae69             	.byte	$8d,$20,$bc,$84,$a2,$00,$86,$8e	; ". ......"
ae71             	.byte	$20,$ab,$8d,$20,$ac,$83,$20,$7d	; " .. .. }"
ae79             	.byte	$8d,$9c,$d8,$20,$a0,$8d,$20,$3c	; "... .. <"
ae81             	.byte	$8d,$20,$a9,$84,$f0,$07,$a9,$01	; ". ......"
ae89             	.byte	$85,$8d,$4c,$6d,$ae,$20,$31,$8d	; "..Lm. 1."
ae91             	.byte	$ad,$c6,$37,$f0,$03,$4c,$d7,$9e	; "..7..L.."
ae99             	.byte	$4c,$3c,$9f,$20,$31,$8d,$20,$a3	; "L<. 1. ."
aea1             	.byte	$8d,$a5,$8d,$d0,$02,$c6,$8d,$a9	; "........"
aea9             	.byte	$00,$85,$8e,$20,$7d,$8d,$9c,$1d	; "... }..."
aeb1             	.byte	$20,$a9,$84,$f0,$03,$4c,$3a,$87	; " ....L:."
aeb9             	.byte	$20,$38,$8d,$ad,$c6,$37,$f0,$03	; " 8...7.."
aec1             	.byte	$4c,$da,$9e,$4c,$d9,$8d,$ab,$02	; "L..L...."
aec9             	.byte	$5a,$4c,$d2,$ae,$cd,$55,$53,$02	; "ZL...US."
aed1             	.byte	$6b,$20,$9a,$8f,$20,$66,$da,$b0	; "k .. f.."
aed9             	.byte	$06,$20,$bf,$95,$4c,$d4,$9e,$4c	; ". ..L..L"
aee1             	.byte	$a6,$87,$ad,$02,$5a,$20,$9a,$8f	; "....Z .."
aee9             	.byte	$20,$60,$da,$4c,$d8,$ae,$aa,$03	; " `.L...."
aef1             	.byte	$5a,$4c,$fe,$ae,$d4,$43,$55,$44	; "ZL...CUD"
aef9             	.byte	$4f,$52,$50,$02,$6b,$20,$9a,$8f	; "ORP.k .."
af01             	.byte	$20,$db,$da,$4c,$d8,$ae,$af,$03	; " ..L...."
af09             	.byte	$5a,$20,$9a,$8f,$20,$28,$db,$b0	; "Z .. (.."
af11             	.byte	$03,$4c,$da,$ae,$a5,$e0,$d0,$c7	; ".L......"
af19             	.byte	$4c,$b7,$87               	; "L.."

af1c  a0 06      Saf1c:	LDY	#$06	; 6 .
af1e  4c 23 af   	JMP	Laf23
af21             	.byte	$a0,$09                  	; ".."
af23  20 e1 85   Laf23:	JSR	S85e1
af26  4c 28 db   	JMP	Sdb28
af29             	.byte	$20,$35,$85,$a0,$1b,$20,$e1,$85	; " 5... .."
af31             	.byte	$20,$60,$da,$20,$23,$86,$20,$54	; " `. #. T"
af39             	.byte	$af,$20,$fb,$85,$20,$4d,$85,$20	; ". .. M. "
af41             	.byte	$b6,$dd,$20,$0f,$86,$4c,$28,$db	; ".. ..L(."
af49             	.byte	$20,$31,$85,$a0,$15,$20,$e1,$85	; " 1... .."
af51             	.byte	$20,$60,$da,$a0,$06,$20,$e1,$85	; " `... .."
af59             	.byte	$4c,$db,$da               	; "L.."

af5c  20 b6 dd   Saf5c:	JSR	Sddb6
af5f  20 4d 85   	JSR	S854d
af62  20 db da   	JSR	Sdadb
af65  20 1c af   	JSR	Saf1c
af68  20 23 86   	JSR	S8623
af6b  a0 1b      	LDY	#$1b	; 27 .
af6d  20 e1 85   	JSR	S85e1
af70  20 66 da   	JSR	Sda66
af73  4c 94 85   	JMP	L8594

af76  20 1c af   Saf76:	JSR	Saf1c
af79  a0 15      	LDY	#$15	; 21 .
af7b  20 e1 85   	JSR	S85e1
af7e  20 66 da   	JSR	Sda66
af81  4c 90 85   	JMP	L8590

af84  a9 00      Saf84:	LDA	#$00	; 0 .
af86  85 b9      	STA	Zb9
af88  20 f6 af   	JSR	Saff6
af8b  20 0b b0   	JSR	Sb00b
af8e  30 1c      	BMI	Lafac
af90  20 13 b0   	JSR	Sb013
af93  20 0b b0   	JSR	Sb00b
af96  30 0b      	BMI	Lafa3
af98  20 0b b0   	JSR	Sb00b
af9b  30 0f      	BMI	Lafac
af9d  20 13 b0   	JSR	Sb013
afa0  20 0b b0   	JSR	Sb00b
afa3  a5 d4      Lafa3:	LDA	Zd4
afa5  49 80      	EOR	#$80	; 128 .
afa7  85 d4      	STA	Zd4
afa9  4c b4 af   	JMP	Lafb4
afac  a0 0f      Lafac:	LDY	#$0f	; 15 .
afae  20 e1 85   	JSR	S85e1
afb1  20 66 da   	JSR	Sda66
afb4  20 fb 85   Lafb4:	JSR	S85fb
afb7  a0 0c      	LDY	#$0c	; 12 .
afb9  20 e1 85   	JSR	S85e1
afbc  20 68 b0   	JSR	Sb068
afbf  10 0f      	BPL	Lafd0
afc1  20 0f 86   	JSR	S860f
afc4  20 ee af   	JSR	Safee
afc7  a2 a2      	LDX	#$a2	; 162 .
afc9  a0 81      	LDY	#$81	; 129 .
afcb  a9 05      	LDA	#$05	; 5 .
afcd  4c e4 af   	JMP	Lafe4
afd0  20 b6 dd   Lafd0:	JSR	Sddb6
afd3  a0 0c      	LDY	#$0c	; 12 .
afd5  20 dd 85   	JSR	S85dd
afd8  20 60 da   	JSR	Sda60
afdb  20 ee af   	JSR	Safee
afde  a2 c0      	LDX	#$c0	; 192 .
afe0  a0 81      	LDY	#$81	; 129 .
afe2  a9 06      	LDA	#$06	; 6 .
afe4  20 40 dd   Lafe4:	JSR	Sdd40
afe7  a5 b9      	LDA	Zb9
afe9  05 d4      	ORA	Zd4
afeb  85 d4      	STA	Zd4
afed  60         	RTS

afee  a0 48      Safee:	LDY	#$48	; 72 H
aff0  20 e1 85   	JSR	S85e1
aff3  4c db da   	JMP	Sdadb

aff6  a0 1e      Saff6:	LDY	#$1e	; 30 .
aff8  20 e1 85   	JSR	S85e1
affb  20 fb ac   	JSR	Sacfb
affe  a5 d4      	LDA	Zd4
b000  10 08      	BPL	Lb00a
b002  a0 1e      	LDY	#$1e	; 30 .
b004  20 e1 85   	JSR	S85e1
b007  20 66 da   	JSR	Sda66
b00a  60         Lb00a:	RTS

b00b  a0 0f      Sb00b:	LDY	#$0f	; 15 .
b00d  20 e1 85   	JSR	S85e1
b010  4c 68 b0   	JMP	Sb068

b013  a5 b9      Sb013:	LDA	Zb9
b015  49 80      	EOR	#$80	; 128 .
b017  85 b9      	STA	Zb9
b019  60         	RTS
b01a             	.byte	$ce,$49,$53,$01,$67,$20,$82,$8f	; ".IS.g .."
b022             	.byte	$20,$ca,$8f,$20,$b6,$dd,$a0,$0f	; " .. ...."
b02a             	.byte	$20,$dd,$85,$20,$60,$da,$4c,$3e	; " .. `.L>"
b032             	.byte	$b0,$d3,$4f,$43,$01,$67,$20,$82	; "..OC.g ."
b03a             	.byte	$8f,$20,$ca,$8f,$20,$84,$af,$4c	; ". .. ..L"
b042             	.byte	$da,$ae,$bc,$01,$5a,$20,$9a,$8f	; "....Z .."
b04a             	.byte	$20,$68,$b0,$30,$03,$4c,$cc,$9e	; " h.0.L.."
b052             	.byte	$4c,$c2,$9e,$be,$01,$5a,$20,$9a	; "L....Z ."
b05a             	.byte	$8f,$20,$68,$b0,$f0,$05,$30,$03	; ". h...0."
b062             	.byte	$4c,$c2,$9e,$4c,$cc,$9e      	; "L..L.."

b068  20 60 da   Sb068:	JSR	Sda60
b06b  a5 d4      	LDA	Zd4
b06d  60         	RTS
b06e             	.byte	$d4,$52,$51,$53,$01,$67,$20,$82	; ".RQS.g ."
b076             	.byte	$8f,$a5,$d4,$30,$1d,$20,$d1,$de	; "...0. .."
b07e             	.byte	$a0,$06,$20,$e1,$85,$20,$28,$db	; ".. .. (."
b086             	.byte	$20,$cc,$dd,$a0,$12,$20,$e1,$85	; " .... .."
b08e             	.byte	$20,$66,$da,$a9,$00,$85,$d9,$4c	; " f.....L"
b096             	.byte	$da,$ae,$4c,$bd,$87         	; "..L.."
b09b  20 2d 85   Lb09b:	JSR	S852d
b09e  20 b6 dd   	JSR	Sddb6
b0a1  a0 0f      	LDY	#$0f	; 15 .
b0a3  20 dd 85   	JSR	S85dd
b0a6  20 60 da   	JSR	Sda60
b0a9  20 84 af   	JSR	Saf84
b0ac  20 1c af   	JSR	Saf1c
b0af  20 78 85   	JSR	S8578
b0b2  20 2d 85   	JSR	S852d
b0b5  20 84 af   	JSR	Saf84
b0b8  20 23 86   	JSR	S8623
b0bb  20 b6 dd   	JSR	Sddb6
b0be  20 4d 85   	JSR	S854d
b0c1  20 db da   	JSR	Sdadb
b0c4  20 1c af   	JSR	Saf1c
b0c7  20 7c 85   	JSR	S857c
b0ca  20 39 85   	JSR	S8539
b0cd  20 b6 dd   	JSR	Sddb6
b0d0  20 49 85   	JSR	S8549
b0d3  20 db da   	JSR	Sdadb
b0d6  20 80 85   	JSR	S8580
b0d9  20 3d 85   	JSR	S853d
b0dc  20 b6 dd   	JSR	Sddb6
b0df  20 49 85   	JSR	S8549
b0e2  20 db da   	JSR	Sdadb
b0e5  4c 84 85   	JMP	S8584

b0e8  20 44 da   Sb0e8:	JSR	Sda44
b0eb  20 6c 85   	JSR	S856c
b0ee  20 88 85   	JSR	S8588
b0f1  20 80 85   	JSR	S8580
b0f4  20 84 85   	JSR	S8584
b0f7  20 76 af   	JSR	Saf76
b0fa  20 70 85   	JSR	S8570
b0fd  20 44 da   	JSR	Sda44
b100  20 5c af   	JSR	Saf5c
b103  20 74 85   	JSR	S8574
b106  4c 9b b0   	JMP	Lb09b
b109             	.byte	$20,$39,$85,$20,$db,$da,$20,$b6	; " 9. .. ."
b111             	.byte	$dd,$20,$31,$85,$20,$66,$da,$4c	; ". 1. f.L"
b119             	.byte	$90,$85,$20,$3d,$85,$20,$db,$da	; ".. =. .."
b121             	.byte	$20,$b6,$dd,$20,$35,$85,$20,$66	; " .. 5. f"
b129             	.byte	$da,$4c,$94,$85,$20,$7a,$b1,$20	; ".L.. z. "
b131             	.byte	$55,$85,$20,$74,$85,$20,$51,$85	; "U. t. Q."
b139             	.byte	$20,$70,$85,$20,$61,$89,$4c,$3a	; " p. a.L:"
b141             	.byte	$ba,$20,$31,$85,$a0,$3f,$20,$e1	; ". 1..? ."
b149             	.byte	$85,$20,$60,$da,$4c,$70,$85,$20	; ". `.Lp. "
b151             	.byte	$31,$85,$a0,$3f,$20,$e1,$85,$20	; "1..? .. "
b159             	.byte	$66,$da,$4c,$70,$85,$20,$35,$85	; "f.Lp. 5."
b161             	.byte	$a0,$3c,$20,$e1,$85,$20,$66,$da	; ".< .. f."
b169             	.byte	$4c,$74,$85,$20,$35,$85,$a0,$3c	; "Lt. 5..<"
b171             	.byte	$20,$e1,$85,$20,$60,$da,$4c,$74	; " .. `.Lt"
b179             	.byte	$85,$20,$51,$85,$20,$ca,$8f,$a2	; ". Q. ..."
b181             	.byte	$c7,$20,$9d,$b1,$20,$55,$85,$20	; ". .. U. "
b189             	.byte	$ca,$8f,$a2,$cb,$20,$9d,$b1,$20	; ".... .. "
b191             	.byte	$31,$85,$a2,$c9,$20,$9d,$b1,$20	; "1... .. "
b199             	.byte	$35,$85,$a2,$cd,$8a,$48,$a0,$22	; "5....H.""
b1a1             	.byte	$20,$e1,$85,$20,$66,$da,$20,$d2	; " .. f. ."
b1a9             	.byte	$d9,$68,$aa,$a5,$d4,$95,$00,$a5	; ".h......"
b1b1             	.byte	$d5,$49,$80,$95,$01,$60,$68,$85	; ".I...`h."
b1b9             	.byte	$bd,$68,$85,$be,$20,$c9,$b1,$4c	; ".h.. ..L"
b1c1             	.byte	$40,$8d,$68,$85,$bd,$68,$85,$be	; "@.h..h.."
b1c9             	.byte	$20,$2b,$b2,$e6,$bd,$d0,$02,$e6	; " +......"
b1d1             	.byte	$be,$20,$d9,$83,$20,$66,$82,$20	; ". .. f. "
b1d9             	.byte	$dd,$82,$20,$5f,$8f,$d0,$06,$20	; ".. _... "
b1e1             	.byte	$e2,$8f,$20,$e4,$81,$20,$f8,$82	; ".. .. .."
b1e9             	.byte	$20,$01,$83,$20,$52,$82,$20,$25	; " .. R. %"
b1f1             	.byte	$83,$20,$5f,$8f,$20,$af,$85,$20	; ". _. .. "
b1f9             	.byte	$d2,$d9,$a4,$d4,$20,$94,$b6,$20	; ".... .. "
b201             	.byte	$7e,$b6,$20,$0c,$b2,$20,$ad,$82	; "~. .. .."
b209             	.byte	$d0,$de,$60,$6c,$bd,$00,$20,$d9	; "..`l.. ."
b211             	.byte	$83,$20,$66,$82,$a0,$00,$b1,$89	; ". f....."
b219             	.byte	$c9,$21,$f0,$03,$20,$66,$82,$20	; ".!.. f. "
b221             	.byte	$af,$85,$20,$d2,$d9,$a4,$d4,$20	; ".. .... "
b229             	.byte	$94,$b6,$20,$4e,$86,$d0,$03,$4c	; ".. N...L"
b231             	.byte	$3c,$9f,$ad,$b7,$37,$c9,$00,$d0	; "<...7..."
b239             	.byte	$03,$20,$65,$b3,$a9,$01,$cd,$a4	; ". e....."
b241             	.byte	$37,$f0,$0c,$8d,$a4,$37,$20,$e8	; "7....7 ."
b249             	.byte	$b0,$20,$2e,$94,$4c,$f4,$8c,$60	; ". ..L..`"
b251             	.byte	$d7,$4f,$44,$4e,$49,$57,$00,$71	; ".ODNIW.q"
b259             	.byte	$20,$2b,$b2,$a9,$ff,$4c,$6c,$b2	; " +...Ll."
b261             	.byte	$d0,$41,$52,$57,$00,$71,$20,$2b	; ".ARW.q +"
b269             	.byte	$b2,$a9,$01,$8d,$a9,$37,$20,$47	; ".....7 G"
b271             	.byte	$b2,$4c,$1e,$ba,$d8,$54,$45,$53	; ".L...TES"
b279             	.byte	$01,$71,$20,$b7,$b1,$20,$d6,$8f	; ".q .. .."
b281             	.byte	$20,$ca,$8f,$20,$76,$af,$4c,$2d	; " .. v.L-"
b289             	.byte	$b1,$d9,$54,$45,$53,$01,$71,$20	; "..TES.q "
b291             	.byte	$b7,$b1,$20,$d6,$8f,$20,$ca,$8f	; ".. .. .."
b299             	.byte	$20,$5c,$af,$4c,$2d,$b1,$c5,$4d	; " \.L-..M"
b2a1             	.byte	$4f,$48,$00,$71,$20,$c3,$b1,$20	; "OH.q .. "
b2a9             	.byte	$44,$da,$20,$76,$af,$20,$44,$da	; "D. v. D."
b2b1             	.byte	$20,$5c,$af,$20,$2d,$b1,$20,$e8	; " \. -. ."
b2b9             	.byte	$b0,$4c,$3a,$ba,$d4,$4f,$44,$01	; ".L:..OD."
b2c1             	.byte	$71,$20,$b7,$b1,$20,$09,$b3,$20	; "q .. .. "
b2c9             	.byte	$7a,$b1,$a4,$d3,$b9,$b1,$04,$48	; "z......H"
b2d1             	.byte	$a9,$02,$99,$b1,$04,$20,$61,$89	; "..... a."
b2d9             	.byte	$a4,$d3,$68,$99,$b1,$04,$a5,$c9	; "..h....."
b2e1             	.byte	$85,$c7,$a5,$ca,$85,$c8,$a5,$cd	; "........"
b2e9             	.byte	$85,$cb,$a5,$ce,$85,$cc,$20,$61	; "...... a"
b2f1             	.byte	$89,$4c,$89,$b6,$d3,$4f,$50,$54	; ".L...OPT"
b2f9             	.byte	$45,$53,$01,$71,$20,$b7,$b1,$20	; "ES.q .. "
b301             	.byte	$09,$b3,$4c,$2d,$b1,$4c,$bd,$87	; "..L-.L.."
b309             	.byte	$20,$6e,$8e,$20,$dd,$82,$20,$66	; " n. .. f"
b311             	.byte	$82,$20,$c4,$8f,$20,$76,$af,$20	; ". .. v. "
b319             	.byte	$25,$83,$20,$63,$82,$20,$c4,$8f	; "%. c. .."
b321             	.byte	$4c,$5c,$af,$d3,$46,$00,$71,$20	; "L\..F.q "
b329             	.byte	$2b,$b2,$a9,$02,$8d,$b7,$37,$20	; "+.....7 "
b331             	.byte	$8a,$8c                  	; ".."
b333  ad 81 37   Lb333:	LDA	D3781
b336  8d c5 02   	STA	D02c5
b339  ad 82 37   	LDA	D3782
b33c  8d c6 02   	STA	D02c6
b33f  ad b3 04   	LDA	D04b3
b342  8d c0 02   	STA	D02c0
b345  ad ec 04   	LDA	D04ec
b348  8d c1 02   	STA	D02c1
b34b  ad 25 05   	LDA	D0525
b34e  8d c2 02   	STA	D02c2
b351  ad 5e 05   	LDA	D055e
b354  8d c3 02   	STA	D02c3
b357  ad 85 37   	LDA	D3785
b35a  8d c8 02   	STA	D02c8
b35d  60         	RTS
b35e             	.byte	$d3,$53,$00,$71,$20,$2b,$b2   	; ".S.q +."

b365  a9 13      Sb365:	LDA	#$13	; 19 .
b367  c5 54      	CMP	Z54
b369  90 08      	BCC	Lb373
b36b  f0 06      	BEQ	Lb373
b36d  85 54      	STA	Z54
b36f  a9 01      	LDA	#$01	; 1 .
b371  85 55      	STA	Z55
b373  a9 01      Lb373:	LDA	#$01	; 1 .
b375  8d b7 37   	STA	D37b7
b378  20 98 8c   	JSR	S8c98
b37b  a9 d5      	LDA	#$d5	; 213 .
b37d  8d 00 02   	STA	D0200
b380  a9 93      	LDA	#$93	; 147 .
b382  8d 01 02   	STA	D0201
b385  a9 c0      	LDA	#$c0	; 192 .
b387  8d 0e d4   	STA	Dd40e
b38a  4c 33 b3   	JMP	Lb333
b38d             	.byte	$d3,$54,$00,$71            	; ".T.q"

b391  a9 00      Sb391:	LDA	#$00	; 0 .
b393  8d b7 37   	STA	D37b7
b396  20 7c 8c   	JSR	S8c7c
b399  ad 83 37   	LDA	D3783
b39c  8d c5 02   	STA	D02c5
b39f  ad 84 37   	LDA	D3784
b3a2  8d c6 02   	STA	D02c6
b3a5  8d c0 02   	STA	D02c0
b3a8  8d c1 02   	STA	D02c1
b3ab  8d c2 02   	STA	D02c2
b3ae  8d c3 02   	STA	D02c3
b3b1  8d c8 02   	STA	D02c8
b3b4  60         	RTS
b3b5             	.byte	$d4,$43,$00,$71,$20,$02,$8d,$ad	; ".C.q ..."
b3bd             	.byte	$a4,$37,$c9,$01,$d0,$08,$a9,$13	; ".7......"
b3c5             	.byte	$85,$54,$a9,$01,$85,$55,$60,$ce	; ".T...U`."
b3cd             	.byte	$50,$54,$45,$53,$01,$71,$20,$b7	; "PTES.q ."
b3d5             	.byte	$b1,$20,$53,$8f,$20,$af,$85,$20	; ". S. .. "
b3dd             	.byte	$d2,$d9,$b0,$17,$a5,$d5,$d0,$13	; "........"
b3e5             	.byte	$a9,$02,$c5,$d4,$90,$0d,$a4,$d4	; "........"
b3ed             	.byte	$b9,$fb,$b3,$a4,$d3,$99,$b0,$04	; "........"
b3f5             	.byte	$4c,$89,$b6,$4c,$bd,$87,$55,$aa	; "L..L..U."
b3fd             	.byte	$ff,$ce,$50,$00,$67,$20,$0f,$b2	; "..P.g .."
b405             	.byte	$20,$44,$da,$a4,$d3,$b9,$b0,$04	; " D......"
b40d             	.byte	$29,$03,$38,$e9,$01,$85,$d4,$4c	; ").8....L"
b415             	.byte	$d4,$a7,$c3,$50,$54,$45,$53,$02	; "...PTES."
b41d             	.byte	$71,$20,$2b,$b2,$a9,$7f,$20,$ad	; "q +... ."
b425             	.byte	$8f,$a5,$d4,$0a,$48,$a9,$02,$20	; "....H.. "
b42d             	.byte	$ad,$8f,$a4,$d4,$68,$99,$c4,$02	; "....h..."
b435             	.byte	$99,$80,$37,$60,$c3,$50,$01,$67	; "..7`.P.g"
b43d             	.byte	$a9,$02,$20,$ad,$8f,$a4,$d4,$b9	; ".. ....."
b445             	.byte	$80,$37,$4a,$85,$d4,$4c,$d4,$a7	; ".7J..L.."
b44d             	.byte	$c3,$54,$45,$53,$01,$71,$20,$b7	; ".TES.q ."
b455             	.byte	$b1,$20,$53,$8f,$20,$af,$85,$20	; ". S. .. "
b45d             	.byte	$d2,$d9,$b0,$1a,$a5,$d5,$d0,$16	; "........"
b465             	.byte	$a9,$7f,$c5,$d4,$90,$10,$a5,$d4	; "........"
b46d             	.byte	$0a,$a4,$d3,$99,$b3,$04,$a4,$d2	; "........"
b475             	.byte	$99,$c0,$02,$4c,$89,$b6,$4c,$bd	; "...L..L."
b47d             	.byte	$87,$d2,$4f,$4c,$4f,$43,$00,$67	; "..OLOC.g"
b485             	.byte	$20,$0f,$b2,$20,$44,$da,$a4,$d3	; " .. D..."
b48d             	.byte	$b9,$b3,$04,$4c,$47,$b4,$d4,$48	; "...LG..H"
b495             	.byte	$00,$71,$20,$c3,$b1,$a4,$d3,$a9	; ".q ....."
b49d             	.byte	$00,$99,$b2,$04,$4c,$cd,$91,$d4	; "....L..."
b4a5             	.byte	$53,$00,$71,$20,$c3,$b1,$a4,$d3	; "S.q ...."
b4ad             	.byte	$a9,$01,$99,$b2,$04,$4c,$3a,$ba	; ".....L:."
b4b5             	.byte	$c8,$53,$54,$45,$53,$01,$71,$20	; ".STES.q "
b4bd             	.byte	$b7,$b1,$20,$53,$8f,$20,$af,$85	; ".. S. .."
b4c5             	.byte	$20,$d2,$d9,$b0,$16,$a5,$d5,$d0	; " ......."
b4cd             	.byte	$12,$a5,$d4,$f0,$06,$c9,$10,$b0	; "........"
b4d5             	.byte	$0a,$49,$ff,$a4,$d3,$99,$b7,$04	; ".I......"
b4dd             	.byte	$4c,$3a,$ba,$4c,$bd,$87,$c5,$50	; "L:.L...P"
b4e5             	.byte	$41,$48,$53,$00,$67,$20,$0f,$b2	; "AHS.g .."
b4ed             	.byte	$20,$44,$da,$a4,$d3,$b9,$b7,$04	; " D......"
b4f5             	.byte	$30,$04,$a9,$00,$f0,$02,$49,$ff	; "0.....I."
b4fd             	.byte	$85,$d4,$4c,$d4,$a7,$c8,$53,$54	; "..L...ST"
b505             	.byte	$45,$47,$01,$67,$20,$95,$b5,$20	; "EG.g .. "
b50d             	.byte	$c8,$82,$a2,$10,$b9,$0f,$36,$85	; "......6."
b515             	.byte	$d4,$a9,$00,$85,$d5,$8a,$48,$98	; "......H."
b51d             	.byte	$48,$20,$aa,$d9,$20,$bf,$95,$20	; "H .. .. "
b525             	.byte	$e2,$8f,$20,$f8,$81,$20,$e4,$81	; ".. .. .."
b52d             	.byte	$20,$5b,$83,$68,$a8,$68,$aa,$88	; " [.h.h.."
b535             	.byte	$ca,$d0,$d9,$20,$2e,$83,$4c,$d4	; "... ..L."
b53d             	.byte	$9e,$c8,$53,$54,$55,$50,$02,$71	; "..STUP.q"
b545             	.byte	$20,$8c,$8e,$20,$64,$83,$20,$dd	; " .. d. ."
b54d             	.byte	$82,$a2,$10,$8a,$48,$20,$73,$9e	; "....H s."
b555             	.byte	$a5,$8a,$f0,$0f,$20,$56,$8f,$20	; ".... V. "
b55d             	.byte	$af,$85,$20,$d2,$d9,$b0,$04,$a5	; ".. ....."
b565             	.byte	$d5,$f0,$06,$20,$2e,$83,$4c,$bd	; "... ..L."
b56d             	.byte	$87,$68,$aa,$ca,$d0,$dd,$a5,$88	; ".h......"
b575             	.byte	$d0,$f1,$20,$95,$b5,$20,$e6,$82	; ".. .. .."
b57d             	.byte	$98,$48,$20,$73,$9e,$20,$af,$85	; ".H s. .."
b585             	.byte	$20,$d2,$d9,$68,$a8,$a5,$d4,$99	; " ..h...."
b58d             	.byte	$00,$36,$c8,$a5,$88,$d0,$e9,$60	; ".6.....`"
b595             	.byte	$a9,$0f,$20,$ad,$8f,$a5,$d4,$d0	; ".. ....."
b59d             	.byte	$03,$4c,$bd,$87,$0a,$0a,$0a,$0a	; ".L......"
b5a5             	.byte	$a8,$60,$d0,$4e,$57,$4f,$48,$53	; ".`.NWOHS"
b5ad             	.byte	$00,$67,$20,$0f,$b2,$a4,$d3,$b9	; ".g ....."
b5b5             	.byte	$b2,$04,$c9,$01,$f0,$03,$4c,$cc	; "......L."
b5bd             	.byte	$9e,$4c,$c2,$9e,$c8,$54,$45,$53	; ".L...TES"
b5c5             	.byte	$01,$71,$20,$b7,$b1,$20,$d6,$8f	; ".q .. .."
b5cd             	.byte	$20,$ca,$8f,$4c,$09,$b6,$d4,$52	; " ..L...R"
b5d5             	.byte	$01,$71,$4c,$e1,$b5,$d4,$48,$47	; ".qL...HG"
b5dd             	.byte	$49,$52,$01,$71,$20,$b7,$b1,$20	; "IR.q .. "
b5e5             	.byte	$bb,$8f,$20,$2d,$85,$20,$66,$da	; ".. -. f."
b5ed             	.byte	$4c,$09,$b6,$d4,$4c,$01,$71,$4c	; "L...L.qL"
b5f5             	.byte	$fd,$b5,$d4,$46,$45,$4c,$01,$71	; "...FEL.q"
b5fd             	.byte	$20,$b7,$b1,$20,$bb,$8f,$20,$2d	; " .. .. -"
b605             	.byte	$85,$20,$60,$da,$20,$f6,$af,$20	; ". `. .. "
b60d             	.byte	$6c,$85,$20,$9b,$b0,$4c,$3a,$ba	; "l. ..L:."

b615  a0 06      Sb615:	LDY	#$06	; 6 .
b617  b9 26 b6   Lb617:	LDA	Db626,Y
b61a  99 80 37   	STA	D3780,Y
b61d  88         	DEY
b61e  10 f7      	BPL	Lb617
b620  a9 1f      	LDA	#$1f	; 31 .
b622  8d c4 02   	STA	D02c4
b625  60         	RTS
b626             Db626:	.byte	$1f,$be,$fe,$9e,$94,$94      	; "......"

b62c  20 f4 8c   Sb62c:	JSR	S8cf4
b62f  a9 01      	LDA	#$01	; 1 .
b631  8d a9 37   	STA	D37a9
b634  20 15 b6   	JSR	Sb615
b637  a0 18      	LDY	#$18	; 24 .
b639  20 dd 85   	JSR	S85dd
b63c  20 8c 85   	JSR	S858c
b63f  a9 00      	LDA	#$00	; 0 .
b641  8d 00 d0   	STA	Dd000
b644  8d 01 d0   	STA	Dd001
b647  8d 02 d0   	STA	Dd002
b64a  8d 03 d0   	STA	Dd003
b64d  a9 00      	LDA	#$00	; 0 .
b64f  8d 08 d0   	STA	Dd008
b652  8d 09 d0   	STA	Dd009
b655  8d 0a d0   	STA	Dd00a
b658  8d 0b d0   	STA	Dd00b
b65b  a0 03      	LDY	#$03	; 3 .
b65d  98         Lb65d:	TYA
b65e  48         	PHA
b65f  20 a1 b6   	JSR	Sb6a1
b662  68         	PLA
b663  a8         	TAY
b664  88         	DEY
b665  10 f6      	BPL	Lb65d
b667  a9 01      	LDA	#$01	; 1 .
b669  8d b2 04   	STA	D04b2
b66c  20 3d ba   	JSR	Sba3d
b66f  20 44 da   	JSR	Sda44
b672  20 bf 95   	JSR	S95bf
b675  20 dd 82   	JSR	S82dd
b678  20 d9 83   	JSR	S83d9
b67b  4c 12 82   	JMP	S8212
b67e             	.byte	$a4,$d3,$b9,$b2,$04,$09,$80,$99	; "........"
b686             	.byte	$b2,$04,$60,$a4,$d3,$b9,$b2,$04	; "..`....."
b68e             	.byte	$29,$0f,$99,$b2,$04,$60      	; ")....`"

b694  84 d2      Sb694:	STY	Zd2
b696  b9 9d b6   	LDA	Db69d,Y
b699  85 d3      	STA	Zd3
b69b  a8         	TAY
b69c  60         	RTS
b69d             Db69d:	.byte	$00,$39,$72,$ab            	; ".9r."

b6a1  b9 c6 b6   Sb6a1:	LDA	Db6c6,Y
b6a4  48         	PHA
b6a5  20 94 b6   	JSR	Sb694
b6a8  68         	PLA
b6a9  99 b3 04   	STA	D04b3,Y
b6ac  a9 55      	LDA	#$55	; 85 U
b6ae  99 b0 04   	STA	D04b0,Y
b6b1  a9 02      	LDA	#$02	; 2 .
b6b3  99 b2 04   	STA	D04b2,Y
b6b6  a9 01      	LDA	#$01	; 1 .
b6b8  99 b1 04   	STA	D04b1,Y
b6bb  a9 00      	LDA	#$00	; 0 .
b6bd  99 b7 04   	STA	D04b7,Y
b6c0  20 e8 b0   	JSR	Sb0e8
b6c3  4c cd 91   	JMP	L91cd
b6c6             Db6c6:	.byte	$0e,$28,$58,$88,$c7,$42,$54,$45	; ".(X..BTE"
b6ce             	.byte	$53,$01,$71,$a9,$7f,$20,$ad,$8f	; "S.q.. .."
b6d6             	.byte	$a5,$d4,$0a,$8d,$c8,$02,$8d,$85	; "........"
b6de             	.byte	$37,$8d,$84,$37,$ae,$b7,$37,$e0	; "7..7..7."
b6e6             	.byte	$00,$d0,$03,$4c,$91,$b3,$60,$d2	; "...L..`."
b6ee             	.byte	$43,$53,$54,$45,$53,$2e,$01,$71	; "CSTES..q"
b6f6             	.byte	$20,$2b,$b2,$20,$82,$8f,$4c,$8c	; " +. ..L."
b6fe             	.byte	$85,$c8,$43,$4e,$55,$52,$43,$53	; "..CNURCS"
b706             	.byte	$2e,$00,$67,$20,$2b,$b2,$20,$4d	; "..g +. M"
b70e             	.byte	$85,$4c,$da,$ae,$d2,$4f,$43,$58	; ".L...OCX"
b716             	.byte	$00,$67,$20,$0f,$b2,$20,$49,$af	; ".g .. I."
b71e             	.byte	$4c,$da,$ae,$d2,$4f,$43,$59,$00	; "L...OCY."
b726             	.byte	$67,$20,$0f,$b2,$20,$29,$af,$4c	; "g .. ).L"
b72e             	.byte	$da,$ae,$c7,$4e,$49,$44,$41,$45	; "...NIDAE"
b736             	.byte	$48,$00,$67,$20,$0f,$b2,$20,$2d	; "H.g .. -"
b73e             	.byte	$85,$4c,$da,$ae,$c7,$42,$00,$67	; ".L...B.g"
b746             	.byte	$20,$44,$da,$ad,$c8,$02,$4a,$85	; " D....J."
b74e             	.byte	$d4,$4c,$d4,$a7,$cb,$42,$01,$71	; ".L...B.q"
b756             	.byte	$4c,$5f,$b7,$cb,$43,$41,$42,$01	; "L_..CAB."
b75e             	.byte	$71,$20,$b7,$b1,$20,$bb,$8f,$a5	; "q .. ..."
b766             	.byte	$e0,$49,$80,$85,$e0,$4c,$84,$b7	; ".I...L.."
b76e             	.byte	$c4,$46,$01,$71,$4c,$7e,$b7,$c4	; ".F.qL~.."
b776             	.byte	$52,$41,$57,$52,$4f,$46,$01,$71	; "RAWROF.q"
b77e             	.byte	$20,$b7,$b1,$20,$bb,$8f,$20,$ff	; " .. .. ."
b786             	.byte	$85,$20,$09,$b1,$20,$13,$86,$20	; ". .. .. "
b78e             	.byte	$1b,$b1,$4c,$2d,$b1,$d3,$43,$00	; "..L-..C."
b796             	.byte	$71,$20,$c3,$b1,$20,$47,$b2,$4c	; "q .. G.L"
b79e             	.byte	$3a,$ba,$ce,$41,$45,$4c,$43,$00	; ":..AELC."
b7a6             	.byte	$71,$20,$2b,$b2,$4c,$4d,$b2,$d2	; "q +.LM.."
b7ae             	.byte	$4f,$53,$52,$55,$43,$00,$67,$a5	; "OSRUC.g."
b7b6             	.byte	$54,$20,$d4,$b7,$20,$ea,$8f,$20	; "T .. .. "
b7be             	.byte	$42,$82,$a5,$55,$20,$d4,$b7,$20	; "B..U .. "
b7c6             	.byte	$e2,$8f,$20,$e4,$81,$20,$f8,$81	; ".. .. .."
b7ce             	.byte	$20,$25,$83,$4c,$d4,$9e,$85,$d4	; " %.L...."
b7d6             	.byte	$a9,$00,$85,$d5,$20,$aa,$d9,$4c	; ".... ..L"
b7de             	.byte	$bf,$95,$d2,$4f,$53,$52,$55,$43	; "...OSRUC"
b7e6             	.byte	$54,$45,$53,$01,$71,$20,$8c,$8e	; "TES.q .."
b7ee             	.byte	$20,$dd,$82,$20,$66,$82,$20,$af	; " .. f. ."
b7f6             	.byte	$8d,$a9,$27,$20,$ad,$8f,$a5,$d4	; "..' ...."
b7fe             	.byte	$48,$20,$56,$82,$20,$25,$83,$20	; "H V. %. "
b806             	.byte	$56,$82,$d0,$13,$20,$66,$82,$20	; "V... f. "
b80e             	.byte	$af,$8d,$a9,$17,$20,$ad,$8f,$a5	; ".... ..."
b816             	.byte	$d4,$85,$54,$68,$85,$55,$60,$4c	; "..Th.U`L"
b81e             	.byte	$bd,$87,$d3,$4f,$50,$00,$67,$20	; "...OP.g "
b826             	.byte	$0f,$b2,$20,$49,$af,$20,$bf,$95	; ".. I. .."
b82e             	.byte	$20,$e2,$8f,$20,$e4,$81,$20,$ea	; " .. .. ."
b836             	.byte	$8f,$20,$f8,$81,$20,$25,$83,$20	; ". .. %. "
b83e             	.byte	$af,$8d,$20,$29,$af,$20,$b3,$8d	; ".. ). .."
b846             	.byte	$20,$bf,$95,$20,$44,$8d,$20,$42	; " .. D. B"
b84e             	.byte	$82,$4c,$d7,$9e,$46,$31,$4b,$31	; ".L..F1K1"
b856             	.byte	$50,$31,$55,$31,$ce,$45,$50,$00	; "P1U1.EP."
b85e             	.byte	$67,$20,$0f,$b2,$a4,$d3,$b9,$b1	; "g ......"
b866             	.byte	$04,$0a,$a8,$b9,$52,$b8,$85,$89	; "....R..."
b86e             	.byte	$b9,$53,$b8,$85,$8a,$4c,$d4,$9e	; ".S...L.."
b876             	.byte	$cc,$4c,$45,$54,$01,$71,$20,$74	; ".LET.q t"
b87e             	.byte	$8e,$f0,$06,$20,$a6,$b8,$4c,$9a	; "... ..L."
b886             	.byte	$b8,$20,$dd,$82,$20,$25,$83,$20	; ". .. %. "
b88e             	.byte	$66,$82,$20,$a6,$b8,$20,$56,$82	; "f. .. V."
b896             	.byte	$a5,$88,$d0,$f0,$20,$40,$8d,$20	; ".... @. "
b89e             	.byte	$64,$83,$20,$d9,$83,$4c,$22,$82	; "d. ..L"."
b8a6             	.byte	$20,$5f,$8f,$d0,$24,$20,$af,$85	; " _..$ .."
b8ae             	.byte	$20,$d2,$d9,$a5,$d5,$d0,$1a,$a5	; " ......."
b8b6             	.byte	$d4,$c9,$04,$b0,$14,$a8,$20,$94	; "...... ."
b8be             	.byte	$b6,$b9,$b2,$04,$c9,$02,$d0,$08	; "........"
b8c6             	.byte	$a9,$01,$99,$b2,$04,$20,$3d,$ba	; "..... =."
b8ce             	.byte	$60,$20,$40,$8d,$4c,$bd,$87,$cf	; "` @.L..."
b8d6             	.byte	$48,$57,$00,$67,$20,$2b,$b2,$20	; "HW.g +. "
b8de             	.byte	$d9,$83,$20,$66,$82,$4c,$d4,$9e	; ".. f.L.."
b8e6             	.byte	$cb,$53,$41,$02,$67,$20,$9a,$8e	; ".SA.g .."
b8ee             	.byte	$20,$dd,$82,$20,$ab,$8d,$20,$38	; " .. .. 8"
b8f6             	.byte	$8d,$20,$a3,$8d,$20,$78,$b9,$20	; ". .. x. "
b8fe             	.byte	$7c,$b8,$20,$3c,$8d,$20,$25,$83	; "|. <. %."
b906             	.byte	$20,$7d,$8d,$9e,$7b,$20,$60,$9f	; " }..{ `."
b90e             	.byte	$20,$31,$8d,$4c,$d9,$8d,$c8,$43	; " 1.L...C"
b916             	.byte	$41,$45,$01,$71,$20,$9a,$8e,$20	; "AE.q .. "
b91e             	.byte	$dd,$82,$20,$ab,$8d,$20,$78,$b9	; ".. .. x."
b926             	.byte	$20,$d9,$83,$20,$66,$82,$a0,$00	; " .. f..."
b92e             	.byte	$b1,$89,$c9,$21,$d0,$09,$20,$ea	; "...!.. ."
b936             	.byte	$8f,$20,$42,$82,$20,$2e,$83,$20	; ". B. .. "
b93e             	.byte	$3c,$8d,$20,$ab,$8d,$20,$5b,$83	; "<. .. [."
b946             	.byte	$20,$dd,$82,$20,$56,$82,$20,$ab	; " .. V. ."
b94e             	.byte	$8d,$20,$66,$82,$20,$dd,$82,$20	; ". f. .. "
b956             	.byte	$d9,$83,$20,$12,$82,$20,$2e,$83	; ".. .. .."
b95e             	.byte	$20,$7d,$8d,$9e,$7b,$20,$3c,$8d	; " }..{ <."
b966             	.byte	$ad,$9b,$37,$d0,$07,$20,$25,$83	; "..7.. %."
b96e             	.byte	$a5,$8a,$d0,$cb,$20,$3c,$8d,$4c	; ".... <.L"
b976             	.byte	$60,$9f,$20,$d9,$83,$20,$66,$82	; "`. .. f."
b97e             	.byte	$20,$ea,$8f,$20,$42,$82,$20,$e6	; " .. B. ."
b986             	.byte	$82,$20,$ea,$8f,$20,$d9,$83,$20	; ". .. .. "
b98e             	.byte	$42,$82,$20,$36,$82,$4c,$b3,$8d	; "B. 6.L.."

b996  48         Sb996:	PHA
b997  a0 00      	LDY	#$00	; 0 .
b999  20 e1 85   	JSR	S85e1
b99c  20 66 da   	JSR	Sda66
b99f  20 d2 d9   	JSR	Sd9d2
b9a2  c6 d4      	DEC	Zd4
b9a4  68         	PLA
b9a5  b0 08      	BCS	Lb9af
b9a7  a6 d5      	LDX	Zd5
b9a9  d0 04      	BNE	Lb9af
b9ab  c5 d4      	CMP	Zd4
b9ad  b0 02      	BCS	Lb9b1
b9af  38         Lb9af:	SEC
b9b0  60         	RTS
b9b1  18         Lb9b1:	CLC
b9b2  a5 d4      	LDA	Zd4
b9b4  60         	RTS
b9b5             	.byte	$ad,$a9,$37,$c9,$01,$f0,$18,$20	; "..7.... "
b9bd             	.byte	$3d,$ba,$b9,$b5,$04,$c9,$ff,$f0	; "=......."
b9c5             	.byte	$ee,$85,$cd,$a4,$d3,$b9,$b4,$04	; "........"
b9cd             	.byte	$c9,$ff,$f0,$e3,$4c,$16,$ba,$20	; "....L.. "
b9d5             	.byte	$35,$85,$a5,$d4,$10,$03,$20,$5e	; "5..... ^"
b9dd             	.byte	$b1,$20,$d2,$d9,$a5,$d4,$c9,$60	; ". .....`"
b9e5             	.byte	$90,$08,$48,$20,$6c,$b1,$68,$38	; "..H l.h8"
b9ed             	.byte	$e9,$60,$a4,$d3,$99,$b5,$04,$85	; ".`......"
b9f5             	.byte	$cd,$20,$31,$85,$a5,$d4,$10,$03	; ". 1....."
b9fd             	.byte	$20,$50,$b1,$20,$d2,$d9,$a5,$d4	; " P. ...."
ba05             	.byte	$c9,$a0,$90,$08,$48,$20,$42,$b1	; "....H B."
ba0d             	.byte	$68,$38,$e9,$a0,$a4,$d3,$99,$b4	; "h8......"
ba15             	.byte	$04,$85,$c9,$20,$aa,$8b,$4c,$3e	; "... ..L>"
ba1d             	.byte	$8a,$a5,$d2,$48,$a5,$d3,$48,$a0	; "...H..H."
ba25             	.byte	$03,$98,$48,$20,$94,$b6,$20,$3d	; "..H .. ="
ba2d             	.byte	$ba,$68,$a8,$88,$10,$f3,$68,$85	; ".h....h."
ba35             	.byte	$d3,$68,$85,$d2,$60,$20,$89,$b6	; ".h..` .."

ba3d  a4 d3      Sba3d:	LDY	Zd3
ba3f  b9 b2 04   	LDA	D04b2,Y
ba42  c9 01      	CMP	#$01	; 1 .
ba44  d0 48      	BNE	Lba8e
ba46  20 35 85   	JSR	S8535
ba49  a9 5f      	LDA	#$5f	; 95 _
ba4b  20 96 b9   	JSR	Sb996
ba4e  90 02      	BCC	Lba52
ba50  a9 ff      	LDA	#$ff	; 255 .
ba52  a4 d3      Lba52:	LDY	Zd3
ba54  99 b5 04   	STA	D04b5,Y
ba57  20 31 85   	JSR	S8531
ba5a  a9 9f      	LDA	#$9f	; 159 .
ba5c  20 96 b9   	JSR	Sb996
ba5f  90 02      	BCC	Lba63
ba61  a9 ff      	LDA	#$ff	; 255 .
ba63  a4 d3      Lba63:	LDY	Zd3
ba65  99 b4 04   	STA	D04b4,Y
ba68  b9 b7 04   	LDA	D04b7,Y
ba6b  30 21      	BMI	Lba8e
ba6d  20 2d 85   	JSR	S852d
ba70  20 d2 d9   	JSR	Sd9d2
ba73  18         	CLC
ba74  a5 d4      	LDA	Zd4
ba76  a4 d5      	LDY	Zd5
ba78  69 07      	ADC	#$07	; 7 .
ba7a  90 01      	BCC	Lba7d
ba7c  c8         	INY
ba7d  a2 ff      Lba7d:	LDX	#$ff	; 255 .
ba7f  e8         Lba7f:	INX
ba80  38         	SEC
ba81  e9 0f      	SBC	#$0f	; 15 .
ba83  b0 fa      	BCS	Lba7f
ba85  88         	DEY
ba86  10 f7      	BPL	Lba7f
ba88  a4 d3      	LDY	Zd3
ba8a  8a         	TXA
ba8b  99 b7 04   	STA	D04b7,Y
ba8e  60         Lba8e:	RTS
ba8f             	.byte	$ce,$45,$48,$57,$02,$71,$20,$aa	; ".EHW.q ."
ba97             	.byte	$8e,$a9,$17,$20,$ad,$8f,$a5,$d4	; "... ...."
ba9f             	.byte	$0a,$a8,$a5,$8b,$99,$d0,$37,$a5	; "......7."
baa7             	.byte	$8c,$99,$d1,$37,$60,$c4,$4e,$4f	; "...7`.NO"
baaf             	.byte	$43,$01,$67,$ad,$bb,$37,$cd,$bb	; "C.g..7.."
bab7             	.byte	$37,$f0,$fb,$a9,$17,$20,$ad,$8f	; "7.... .."
babf             	.byte	$a0,$ff,$a5,$d4,$c8,$38,$e9,$08	; ".....8.."
bac7             	.byte	$10,$fa,$aa,$38,$a9,$00,$6a,$e8	; "...8..j."
bacf             	.byte	$d0,$fc,$39,$cc,$37,$d0,$03,$4c	; "..9.7..L"
bad7             	.byte	$cc,$9e,$4c,$c2,$9e,$d0,$53,$54	; "..L...ST"
badf             	.byte	$45,$53,$01,$71,$20,$b7,$b1,$20	; "ES.q .. "
bae7             	.byte	$d6,$8f,$20,$fb,$85,$a5,$d4,$f0	; ".. ....."
baef             	.byte	$13,$29,$7f,$aa,$ca,$86,$d4,$a0	; ".)......"
baf7             	.byte	$06,$20,$e1,$85,$20,$68,$b0,$30	; ". .. h.0"
baff             	.byte	$03,$4c,$bd,$87,$20,$0f,$86,$20	; ".L.. .. "
bb07             	.byte	$21,$af,$20,$88,$85,$20,$ca,$b0	; "!. .. .."
bb0f             	.byte	$4c,$89,$b6,$c4,$45,$45,$50,$53	; "L...EEPS"
bb17             	.byte	$00,$67,$20,$0f,$b2,$20,$49,$85	; ".g .. I."
bb1f             	.byte	$a0,$09,$20,$e1,$85,$20,$db,$da	; ".. .. .."
bb27             	.byte	$4c,$da,$ae,$d4,$4f,$4f,$54,$04	; "L...OOT."
bb2f             	.byte	$71,$a9,$03,$8d,$32,$02,$8d,$0f	; "q...2..."
bb37             	.byte	$d2,$a9,$ff,$20,$ad,$8f,$a5,$d4	; "... ...."
bb3f             	.byte	$48,$a9,$15,$20,$ad,$8f,$a5,$d4	; "H.. ...."
bb47             	.byte	$48,$20,$7c,$8f,$20,$ab,$85,$a0	; "H |. ..."
bb4f             	.byte	$43,$20,$dd,$85,$20,$28,$db,$20	; "C .. (. "
bb57             	.byte	$d2,$d9,$b0,$3e,$a5,$d4,$38,$e9	; "...>..8."
bb5f             	.byte	$07,$b0,$02,$c6,$d5,$48,$a5,$d5	; ".....H.."
bb67             	.byte	$48,$a9,$01,$20,$ad,$8f,$a5,$d4	; "H.. ...."
bb6f             	.byte	$aa,$0a,$0a,$a8,$bd,$1c,$02,$d0	; "........"
bb77             	.byte	$fb,$68,$99,$02,$d2,$68,$99,$00	; ".h...h.."
bb7f             	.byte	$d2,$68,$29,$0f,$09,$a0,$9d,$00	; ".h)....."
bb87             	.byte	$38,$99,$03,$d2,$bd,$02,$38,$9d	; "8.....8."
bb8f             	.byte	$04,$38,$8a,$0a,$aa,$68,$9d,$1c	; ".8...h.."
bb97             	.byte	$02,$60,$4c,$bd,$87,$a2,$00,$a0	; ".`L....."
bb9f             	.byte	$00,$20,$a7,$bb,$a2,$02,$a0,$04	; ". ......"
bba7             	.byte	$bd,$1c,$02,$d0,$05,$a9,$a0,$99	; "........"
bbaf             	.byte	$03,$d2,$8a,$4a,$aa,$bd,$00,$38	; "...J...8"
bbb7             	.byte	$c9,$a0,$f0,$19,$bd,$02,$38,$f0	; "......8."
bbbf             	.byte	$14,$de,$04,$38,$d0,$0f,$de,$00	; "...8...."
bbc7             	.byte	$38,$bd,$00,$38,$99,$03,$d2,$bd	; "8..8...."
bbcf             	.byte	$02,$38,$9d,$04,$38,$60,$d6,$4e	; ".8..8`.N"
bbd7             	.byte	$45,$54,$45,$53,$02,$71,$a9,$7f	; "ETES.q.."
bbdf             	.byte	$20,$ad,$8f,$a5,$d4,$48,$a9,$01	; " ....H.."
bbe7             	.byte	$20,$ad,$8f,$a6,$d4,$68,$9d,$02	; " ....h.."
bbef             	.byte	$38,$60,$d3,$4e,$52,$45,$00,$71	; "8`.NRE.q"
bbf7             	.byte	$20,$d1,$bc,$4c,$37,$bc,$cc,$4c	; " ..L7..L"
bbff             	.byte	$41,$52,$45,$00,$71,$20,$f7,$bb	; "ARE.q .."
bc07             	.byte	$a9,$00,$85,$9f,$85,$a0,$60,$d3	; "......`."
bc0f             	.byte	$50,$52,$45,$00,$71,$20,$d1,$bc	; "PRE.q .."
bc17             	.byte	$20,$03,$bd,$d0,$06,$20,$e3,$84	; " .... .."
bc1f             	.byte	$4c,$34,$bc,$60,$20,$64,$83,$20	; "L4.` d. "
bc27             	.byte	$81,$82,$20,$7a,$82,$a0,$00,$b1	; ".. z...."
bc2f             	.byte	$8b,$c9,$22,$d0,$09,$20,$6d,$82	; "..".. m."
bc37             	.byte	$20,$d0,$83,$4c,$22,$82,$4c,$bd	; " ..L".L."
bc3f             	.byte	$87,$c5,$53,$41,$52,$45,$01,$71	; "..SARE.q"
bc47             	.byte	$4c,$4e,$bc,$d2,$45,$01,$71,$20	; "LN..E.q "
bc4f             	.byte	$39,$8e,$d0,$03,$4c,$23,$bc,$20	; "9...L#. "
bc57             	.byte	$7d,$8e,$d0,$e2,$20,$dd,$82,$20	; "}... .. "
bc5f             	.byte	$ee,$84,$20,$9a,$bc,$f0,$33,$20	; ".. ...3 "
bc67             	.byte	$3c,$8e,$d0,$d2,$20,$23,$bc,$4c	; "<... #.L"
bc6f             	.byte	$61,$bc,$ce,$52,$45,$01,$71,$20	; "a..RE.q "
bc77             	.byte	$39,$8e,$d0,$03,$4c,$37,$bc,$20	; "9...L7. "
bc7f             	.byte	$7d,$8e,$d0,$ba,$20,$dd,$82,$20	; "}... .. "
bc87             	.byte	$ee,$84,$20,$9a,$bc,$f0,$0b,$20	; ".. .... "
bc8f             	.byte	$3c,$8e,$d0,$aa,$20,$37,$bc,$4c	; "<... 7.L"
bc97             	.byte	$89,$bc,$60,$20,$d8,$84,$f0,$0c	; "..` ...."
bc9f             	.byte	$20,$25,$83,$20,$56,$82,$20,$ee	; " %. V. ."
bca7             	.byte	$84,$20,$66,$82,$60,$cc,$4c,$41	; ". f.`.LA"
bcaf             	.byte	$4f,$50,$00,$71,$20,$45,$bd,$20	; "OP.q E. "
bcb7             	.byte	$2a,$86,$4c,$b7,$bd,$d3,$54,$4f	; "*.L...TO"
bcbf             	.byte	$50,$00,$71,$20,$d1,$bc,$20,$03	; "P.q .. ."
bcc7             	.byte	$bd,$d0,$06,$20,$56,$bd,$4c,$2a	; "... V.L*"
bccf             	.byte	$86,$60,$68,$85,$87,$68,$85,$88	; ".`h..h.."
bcd7             	.byte	$20,$33,$a2,$20,$f8,$82,$20,$0a	; " 3. .. ."
bcdf             	.byte	$83,$20,$ee,$84,$20,$9a,$bc,$f0	; ". .. ..."
bce7             	.byte	$06,$20,$00,$bd,$4c,$e3,$bc,$20	; ". ..L.. "
bcef             	.byte	$ff,$83,$20,$ee,$84,$20,$25,$83	; ".. .. %."
bcf7             	.byte	$20,$00,$bd,$20,$39,$84,$d0,$f5	; " .. 9..."
bcff             	.byte	$60,$6c,$a7,$00,$20,$f9,$84,$20	; "`l.. .. "
bd07             	.byte	$63,$82,$a0,$00,$b1,$89,$c9,$22	; "c......""
bd0f             	.byte	$60,$cf,$50,$01,$71,$20,$39,$8e	; "`.P.q 9."
bd17             	.byte	$d0,$0b,$20,$48,$bd,$f0,$20,$20	; ".. H..  "
bd1f             	.byte	$e3,$84,$4c,$bd,$87,$20,$7d,$8e	; "..L.. }."
bd27             	.byte	$d0,$f8,$20,$dd,$82,$20,$ee,$84	; ".. .. .."
bd2f             	.byte	$20,$9a,$bc,$f0,$0a,$20,$3c,$8e	; " .... <."
bd37             	.byte	$d0,$e8,$20,$48,$bd,$f0,$f1,$60	; ".. H...`"
bd3f             	.byte	$d3,$50,$4f,$50,$00,$71,$20,$d1	; ".POP.q ."
bd47             	.byte	$bc,$20,$03,$bd,$d0,$08,$20,$56	; ". .... V"
bd4f             	.byte	$bd,$20,$98,$bd,$a9,$00,$60,$20	; ". ....` "
bd57             	.byte	$02,$87,$20,$e3,$84,$20,$89,$99	; ".. .. .."
bd5f             	.byte	$20,$e3,$84,$20,$63,$82,$20,$63	; " .. c. c"
bd67             	.byte	$82,$20,$dd,$82,$f0,$2a,$a9,$00	; ". ...*.."
bd6f             	.byte	$85,$b8,$e6,$b8,$20,$ab,$8d,$20	; ".... .. "
bd77             	.byte	$56,$82,$d0,$f6,$20,$2f,$86,$20	; "V... /. "
bd7f             	.byte	$3c,$8d,$20,$e6,$8f,$a0,$00,$b1	; "<. ....."
bd87             	.byte	$87,$91,$89,$20,$52,$82,$20,$12	; "... R. ."
bd8f             	.byte	$82,$20,$89,$99,$c6,$b8,$d0,$e4	; ". ......"
bd97             	.byte	$60,$20,$e3,$84,$20,$63,$82,$20	; "` .. c. "
bd9f             	.byte	$6a,$82,$20,$89,$99,$20,$2a,$86	; "j. .. *."
bda7             	.byte	$20,$06,$99,$45,$4e,$44,$9b,$4c	; " ..END.L"
bdaf             	.byte	$2a,$86,$d3,$4e,$4f,$50,$00,$71	; "*..NOP.q"
bdb7             	.byte	$20,$d1,$bc,$20,$f9,$84,$20,$74	; " .. .. t"
bdbf             	.byte	$84,$f0,$30,$20,$06,$99,$4d,$41	; "..0 ..MA"
bdc7             	.byte	$4b,$45,$a0,$20,$34,$86,$20,$e3	; "KE. 4. ."
bdcf             	.byte	$84,$20,$89,$99,$20,$2f,$86,$20	; ". .. /. "
bdd7             	.byte	$e3,$84,$20,$66,$82,$a0,$00,$b1	; ".. f...."
bddf             	.byte	$89,$c9,$21,$f0,$08,$20,$81,$8e	; "..!.. .."
bde7             	.byte	$f0,$03,$20,$34,$86,$20,$80,$99	; ".. 4. .."
bdef             	.byte	$4c,$2a,$86,$60,$d3,$44,$4f,$50	; "L*.`.DOP"
bdf7             	.byte	$00,$71,$a9,$00,$48,$20,$14,$be	; ".q..H .."
bdff             	.byte	$68,$aa,$e8,$8a,$c9,$18,$d0,$f4	; "h......."
be07             	.byte	$60,$c4,$4f,$50,$01,$71,$a9,$17	; "`.OP.q.."
be0f             	.byte	$20,$ad,$8f,$a5,$d4,$85,$d4,$a2	; " ......."
be17             	.byte	$00,$86,$d5,$0a,$a8,$b9,$d1,$37	; ".......7"
be1f             	.byte	$f0,$1e,$85,$8c,$b9,$d0,$37,$85	; "......7."
be27             	.byte	$8b,$20,$06,$99,$57,$48,$45,$4e	; ". ..WHEN"
be2f             	.byte	$a0,$20,$aa,$d9,$20,$93,$9a,$20	; ". .. .. "
be37             	.byte	$2f,$86,$20,$2e,$83,$20,$dc,$bd	; "/. .. .."
be3f             	.byte	$60,$c3,$52,$00,$67,$20,$ac,$be	; "`.R.g .."
be47             	.byte	$f0,$0f,$20,$70,$86,$20,$56,$96	; ".. p. V."
be4f             	.byte	$20,$6a,$86,$a5,$23,$30,$40,$10	; " j..#0@."
be57             	.byte	$12,$20,$df,$88,$20,$84,$88,$ad	; ". .. ..."
be5f             	.byte	$fc,$02,$c9,$ff,$f0,$f3,$20,$56	; "...... V"
be67             	.byte	$96,$30,$29,$20,$9c,$be,$4c,$d4	; ".0) ..L."
be6f             	.byte	$9e,$cc,$52,$00,$67,$20,$ac,$be	; "..R.g .."
be77             	.byte	$f0,$0f,$20,$70,$86,$20,$9e,$96	; ".. p. .."
be7f             	.byte	$20,$6a,$86,$a5,$23,$30,$10,$10	; " j..#0.."
be87             	.byte	$05,$20,$9e,$96,$30,$06,$20,$e0	; ". ..0. ."
be8f             	.byte	$96,$4c,$d7,$9e,$4c,$8d,$88,$20	; ".L..L.. "
be97             	.byte	$c1,$82,$4c,$d4,$9e,$20,$e6,$8f	; "..L.. .."
be9f             	.byte	$a0,$00,$a9,$23,$91,$89,$ad,$86	; "...#...."
bea7             	.byte	$37,$c8,$91,$89,$60,$20,$48,$86	; "7...` H."
beaf             	.byte	$d0,$08,$a2,$30,$bd,$40,$03,$c9	; "...0.@.."
beb7             	.byte	$ff,$60,$a9,$00,$60,$d3,$4f,$44	; ".`..`.OD"
bebf             	.byte	$2e,$00,$67,$a2,$00,$8e,$44,$02	; "..g...D."
bec7             	.byte	$e8,$86,$09,$6c,$0a,$00,$c4,$41	; "...l...A"
becf             	.byte	$4f,$4c,$01,$71,$20,$20,$8f,$a9	; "OL.q  .."
bed7             	.byte	$04,$85,$bc,$20,$0f,$96,$20,$7c	; "... .. |"
bedf             	.byte	$86,$20,$9e,$96,$30,$0b,$20,$e0	; ". ..0. ."
bee7             	.byte	$96,$20,$7d,$8d,$9b,$fd,$4c,$e0	; ". }...L."
beef             	.byte	$be,$20,$4c,$96,$4c,$6a,$86,$c5	; ". L.Lj.."
bef7             	.byte	$54,$49,$52,$57,$54,$45,$53,$01	; "TIRWTES."
beff             	.byte	$71,$20,$48,$96,$20,$40,$8d,$a5	; "q H. @.."
bf07             	.byte	$8a,$f0,$0d,$20,$18,$8f,$20,$23	; "... .. #"
bf0f             	.byte	$8f,$a9,$08,$85,$bc,$4c,$0b,$96	; ".....L.."
bf17             	.byte	$60,$c4,$41,$45,$52,$54,$45,$53	; "`.AERTES"
bf1f             	.byte	$01,$71,$20,$44,$96,$20,$40,$8d	; ".q D. @."
bf27             	.byte	$a5,$8a,$f0,$0d,$20,$18,$8f,$20	; ".... .. "
bf2f             	.byte	$23,$8f,$a9,$04,$85,$bc,$4c,$07	; "#.....L."
bf37             	.byte	$96,$60,$c7,$4f,$4c,$41,$54,$41	; ".`.OLATA"
bf3f             	.byte	$43,$01,$71,$20,$20,$8f,$a2,$00	; "C.q  ..."
bf47             	.byte	$bd,$00,$06,$e8,$c9,$9b,$f0,$1f	; "........"
bf4f             	.byte	$c9,$3a,$d0,$f4,$bd,$00,$06,$c9	; ".:......"
bf57             	.byte	$9b,$d0,$14,$a9,$2a,$9d,$00,$06	; "....*..."
bf5f             	.byte	$a9,$2e,$9d,$01,$06,$a9,$2a,$9d	; "......*."
bf67             	.byte	$02,$06,$a9,$9b,$9d,$03,$06,$a9	; "........"
bf6f             	.byte	$06,$85,$bc,$20,$0f,$96,$a2,$60	; "... ...`"
bf77             	.byte	$a9,$05,$9d,$42,$03,$a9,$00,$9d	; "...B...."
bf7f             	.byte	$44,$03,$a9,$06,$9d,$45,$03,$a9	; "D....E.."
bf87             	.byte	$6d,$9d,$48,$03,$a9,$00,$9d,$49	; "m.H....I"
bf8f             	.byte	$03,$20,$56,$e4,$30,$0a,$a0,$00	; ". V.0..."
bf97             	.byte	$a2,$06,$20,$2d,$99,$4c,$75,$bf	; ".. -.Lu."
bf9f             	.byte	$c0,$88,$d0,$03,$4c,$4c,$96,$4c	; "....LL.L"
bfa7             	.byte	$5e,$88,$c5,$56,$41,$53,$01,$71	; "^..VAS.q"
bfaf             	.byte	$20,$20,$8f,$a9,$08,$85,$bc,$20	; "  ..... "
bfb7             	.byte	$0f,$96,$20,$97,$86,$20,$45,$bd	; ".. .. E."
bfbf             	.byte	$20,$b7,$bd,$20,$4c,$96,$4c,$8b	; " .. L.L."
bfc7             	.byte	$86,$c6,$52,$45,$01,$71,$20,$20	; "..RE.q  "
bfcf             	.byte	$8f,$a2,$60,$a9,$21,$9d,$42,$03	; "..`.!.B."
bfd7             	.byte	$a9,$00,$9d,$44,$03,$a9,$06,$9d	; "...D...."
bfdf             	.byte	$45,$03,$20,$56,$e4,$10,$03,$4c	; "E. V...L"
bfe7             	.byte	$4b,$88,$60,$00,$00,$00,$00,$00	; "K.`....."
bfef             	.byte	$00,$00,$00,$00,$00,$00,$00,$00	; "........"
bff7             	.byte	$00,$00,$00,$00,$00,$00,$00,$00	; "........"
bfff             	.byte	$00                     	; "."
Dd000	.equ	$d000
Dd001	.equ	$d001
Dd002	.equ	$d002
Dd003	.equ	$d003
Dd008	.equ	$d008
Dd009	.equ	$d009
Dd00a	.equ	$d00a
Dd00b	.equ	$d00b
Dd01d	.equ	$d01d
Dd01f	.equ	$d01f
Dd20e	.equ	$d20e
Dd407	.equ	$d407
Dd40a	.equ	$d40a
Dd40b	.equ	$d40b
Dd40e	.equ	$d40e
Sd800	.equ	$d800
Sd8e6	.equ	$d8e6
Sd9d2	.equ	$d9d2
Sda44	.equ	$da44
Sda60	.equ	$da60
Sda66	.equ	$da66
Sdadb	.equ	$dadb
Sdb28	.equ	$db28
Sdd40	.equ	$dd40
Sddb6	.equ	$ddb6
Se456	.equ	$e456
Se45c	.equ	$e45c
Df082	.equ	$f082





Cross References

Symbol    Value  References
**RUN**   9ab1   0000 
D0200     0200   b37d 
D0201     0201   b382 
D022f     022f   8cb7 8c78 8c1b 
D0230     0230   8c6e 
D0231     0231   8c73 
D02c0     02c0   b3a5 b342 
D02c1     02c1   b3a8 b348 
D02c2     02c2   b3ab b34e 
D02c3     02c3   b3ae b354 
D02c4     02c4   b622 
D02c5     02c5   b39c b336 
D02c6     02c6   b3a2 b33c 
D02c8     02c8   b3b1 b35a 
D02e4     02e4   86cc 
D02e8     02e8   86c5 9ab1 
D02fc     02fc   a3e2 8895 
D02ff     02ff   9824 
D031a     031a   86ac 86a5 
D0340     0340   97e7 
D0342     0342   8cda 8cd0 9650 97c3 
D0344     0344   8cdf 97c8 
D0345     0345   8ce4 97cd 
D0348     0348   97d2 
D0349     0349   97d7 
D034a     034a   8ce9 
D034b     034b   8cee 
D0480     0480   85a1 855f 
D04b0     04b0   b6ae 
D04b1     04b1   b6b8 
D04b2     04b2   b6b3 ba3f b669 88c9 88c4 
D04b3     04b3   b6a9 b33f 
D04b4     04b4   ba65 
D04b5     04b5   ba54 
D04b6     04b6   91df 91cf 
D04b7     04b7   b6bd ba8b ba68 
D04ec     04ec   b345 
D0525     0525   b34b 
D055e     055e   b351 
D0600     0600   9705 
D0600     0600   a423 a41c 893f 97a2 9563 952e 9526 951e 9508 9490 9482 95eb 
D0601     0601   951b 
D0670     0670   a426 9ad2 
D20d1     20d1   99c2 
D3106     3106   9be3 
D3107     3107   9bed 
D310b     310b   84cb 83e2 9be6 
D310c     310c   84d2 83e7 9bf0 
D3110     3110   9b3f 
D3111     3111   9b42 
D3500     3500   8942 
D3780     3780   b61a 
D3781     3781   b333 
D3782     3782   b339 
D3783     3783   b399 
D3784     3784   b39f 
D3785     3785   b357 
D3786     3786   a3fd a3ec 
D3787     3787   97e2 97b9 
D3788     3788   a3c5 
D3789     3789   a3ca 
D379b     379b   82a9 9bd7 
D379c     379c   9ac7 
D379d     379d   8605 8617 
D37a4     37a4   8cc6 
D37a9     37a9   b631 
D37b0     37b0   888d 
D37b1     37b1   8890 
D37b7     37b7   b393 b375 88cc 
D37b8     37b8   907b 9033 9acd 
D37bc     37bc   86c9 845a 9098 
D37bd     37bd   86fb 86dd 8464 842d 
D37be     37be   86ec 86e2 846c 8432 
D37bf     37bf   86f1 86d5 845f 8428 
D37c1     37c1   86f6 86d8 8cf6 
D37c6     37c6   9f15 9f44 
D37c8     37c8   8929 88e8 9e0f 88bf 88b5 9aca 
D37c9     37c9   8915 8912 8905 88f1 88df 
D37ca     37ca   88f9 88e2 
D37cb     37cb   88e5 
D37d0     37d0   9051 904d 9432 891b 
D37d1     37d1   8920 
D5427     5427   8721 
D544f     544f   8750 
D554f     554f   871b 
D5720     5720   8727 
D608e     608e   998c 
D80d0     80d0   a394 a38c 
D80d1     80d1   a3ac 
D80d2     80d2   a3b0 
D8141     8141   85ed 
D818f     818f   978c 
D987d     987d   9875 
D9aad     9aad   9b1f 
D9aae     9aae   9b16 
D9aaf     9aaf   9b0d 
D9ab0     9ab0   9b04 
Da08d     a08d   9a0d 
Db626     b626   b617 
Db69d     b69d   b696 
Db6c6     b6c6   b6a1 
Dd000     d000   b641 
Dd001     d001   b644 
Dd002     d002   b647 
Dd003     d003   b64a 
Dd008     d008   b64f 
Dd009     d009   b652 
Dd00a     d00a   b655 
Dd00b     d00b   b658 
Dd01d     d01d   8cc1 
Dd01f     d01f   943d 
Dd20e     d20e   9adc 
Dd407     d407   8cbc 
Dd40a     d40a   9440 
Dd40b     d40b   8c1e 
Dd40e     d40e   b387 
Df082     f082   99c5 
L81ea     81ea   81e6 
L81fa     81fa   81f6 
L8218     8218   8214 
L8238     8238   8234 
L8248     8248   8244 
L8258     8258   8254 
L826f     826f   8268 
L8283     8283   827c 
L82ac     82ac   82a7 
L82f8     82f8   9d6b 
L840e     840e   840a 
L8417     8417   8413 
L8432     8432   842b 
L8436     8436   8420 
L844c     844c   8446 
L8457     8457   8451 
L8469     8469   846f 8462 
L846c     846c   8467 
L8471     8471   845d 
L847f     847f   8479 
L84d7     84d7   84d0 
L8559     8559   854b 8547 8543 853f 853b 8537 8533 852f 
L855d     855d   8557 8553 854f 
L855f     855f   8569 
L8590     8590   af81 
L8594     8594   af73 
L8598     8598   856e 8572 8576 857a 857e 8582 858a 8586 
L859c     859c   ad80 8596 8592 858e 
L859e     859e   85a8 
L85cc     85cc   85d4 
L85e3     85e3   85df 
L85ed     85ed   85f8 
L85fa     85fa   85f2 
L8601     8601   85fd 
L8603     8603   860c 
L8615     8615   8611 
L8617     8617   8620 
L863f     863f   863b 
L8647     8647   8642 
L8652     8652   864c 
L8658     8658   8654 
L8663     8663   865d 
L8669     8669   8665 
L8680     8680   867a 8674 866e 
L869b     869b   8695 868f 8689 
L86a2     86a2   86a8 
L86e6     86e6   86d1 
L86ec     86ec   86e8 
L8709     8709   9006 
L8718     8718   9f1a 
L874d     874d   9c28 
L8777     8777   9cce 
L878f     878f   9f50 
L87b7     87b7   ad24 
L87d9     87d9   9c55 
L8889     8889   8886 
L888d     888d   97df 
L88a3     88a3   992a 
L88b5     88b5   88a6 
L88bd     88bd   88b8 
L88d6     88d6   88d1 
L8901     8901   88fc 88f4 
L8904     8904   890d 
L890f     890f   8908 
L893f     893f   8946 
L8960     8960   8925 88eb 
L8c1e     8c1e   8c23 
L8c36     8c36   8c69 8c47 
L8c41     8c41   8c45 
L8c49     8c49   8c3c 
L8c6c     8c6c   8c3a 
L8d0b     8d0b   8cfd 
L8d15     8d15   8d1e 
L8d46     8d46   8d3a 8d36 8d42 8d3e 
L8d69     8d69   8d65 
L8d96     8d96   8d8f 
L8db5     8db5   8da9 8da5 8db1 8dad 
L8dd9     8dd9   99cf 9a90 9a63 9a30 9f4d 9c14 
L8e38     8e38   8e34 8e30 8e2c 8e28 
L8e5f     8e5f   8e5a 8e4f 
L8e65     8e65   8e3f 
L8e68     8e68   8e47 
L8e8b     8e8b   8e87 8e83 
L8ee6     8ee6   8ede 
L8eea     8eea   8ecd 8ec7 
L8eed     8eed   8ee8 
L8ef9     8ef9   8ee3 8eda 8ed6 8ed2 8ec9 
L8efb     8efb   8ec2 
L8fec     8fec   8fe4 8fe8 
L9009     9009   9004 8ffd 
L9021     9021   9024 
L9030     9030   902c 
L9038     9038   903d 
L9041     9041   9049 
L904d     904d   9057 
L905c     905c   906d 
L9074     9074   9079 
L909d     909d   90b0 
L90a9     90a9   90a1 
L90ad     90ad   90a6 
L90bb     90bb   9121 
L90bc     90bc   90b9 
L90bf     90bf   911c 90f2 
L90f5     90f5   9149 90e1 90db 90cb 
L911f     911f   9137 9111 910b 90fb 90c8 
L913a     913a   912c 
L91cd     91cd   b6c3 
L91e4     91e4   91e7 
L91e9     91e9   91d2 
L9432     9432   9436 
L943b     943b   9447 
L943d     943d   9444 
L944d     944d   9469 
L946d     946d   9461 945a 9453 
L9471     9471   94a0 
L9479     9479   948a 
L948e     948e   9480 
L949a     949a   9493 948c 9485 
L94a4     94a4   9498 
L94aa     94aa   94bb 
L94bd     94bd   94a8 
L94c0     94c0   94b6 
L9510     9510   9531 
L951b     951b   9524 
L952d     952d   9517 950e 
L9534     9534   952b 9513 
L9538     9538   953b 954b 9547 9543 953f 
L9570     9570   9569 955f 
L958a     958a   957c 
L95a0     95a0   95ae 
L95ab     95ab   9587 
L95b0     95b0   959e 
L95b3     95b3   9578 
L95e0     95e0   95e6 
L96ea     96ea   96fe 
L96ef     96ef   96ec 
L9701     9701   970a 
L9718     9718   9710 
L971b     971b   9714 
L972d     972d   971d 
L973b     973b   9735 
L9747     9747   973f 
L9752     9752   9745 9730 
L9763     9763   9755 
L9766     9766   9739 
L9769     9769   974e 
L976e     976e   9750 
L9779     9779   9774 976c 
L977c     977c   972a 
L9782     9782   9761 
L978c     978c   9794 
L9798     9798   978f 
L97b6     97b6   97a7 
L97b8     97b8   97b4 97af 97ab 979f 979b 
L97f3     97f3   97dd 97ec 
L980b     980b   97ff 
L9811     9811   97f9 
L9816     9816   9821 
L983b     983b   9837 
L984b     984b   9860 985a 
L9866     9866   9841 
L98b7     98b7   98b3 
L993f     993f   9935 
L994c     994c   9947 
L9964     9964   995c 
L996e     996e   9966 
L9971     9971   996b 9961 
L99a1     99a1   999c 
L99b3     99b3   99ad 
L99b9     99b9   99b1 
L99bc     99bc   99a9 
L99cf     99cf   9991 
L99d2     99d2   99b5 
L99fb     99fb   99f8 
L99fe     99fe   99e6 99e2 
L9a01     9a01   99ea 
L9a04     9a04   99f4 
L9a07     9a07   99ef 99da 
L9a0c     9a0c   99de 
L9a0f     9a0f   9a2e 99fe 
L9a25     9a25   9a19 
L9a30     9a30   9a15 
L9a49     9a49   9a40 9a3b 9a36 
L9a4c     9a4c   9a04 
L9a4f     9a4f   9a5b 
L9a5e     9a5e   9a56 
L9a81     9a81   9a01 
L9a98     9a98   9aa4 
L9aa6     9aa6   9a9c 
L9abb     9abb   9ac2 
L9b00     9b00   9b3b 
L9b0d     9b0d   9b07 
L9b16     9b16   9b10 
L9b1f     9b1f   9b19 
L9b26     9b26   9b1d 9b14 9b0b 
L9b34     9b34   9b22 
L9bbb     9bbb   9f57 
L9bc2     9bc2   9bc5 
L9bc9     9bc9   9bcc 
L9bfe     9bfe   9d34 
L9c17     9c17   9c0c 
L9c1e     9c1e   9ccb 9db9 9ce4 
L9c28     9c28   9c7e 9c35 
L9c2b     9c2b   9c26 
L9c37     9c37   9c31 
L9c58     9c58   9c6b 9c66 9c62 9c53 9c47 
L9c5e     9c5e   9c4b 
L9cbf     9cbf   9cb2 
L9cce     9cce   9cbd 
L9cd1     9cd1   9c8a 9c86 9c82 
L9cd7     9cd7   9c70 
L9cd9     9cd9   9cd4 9c9a 9f10 
L9ce7     9ce7   9cdb 
L9d08     9d08   9ced 
L9d10     9d10   9d0b 
L9d16     9d16   9d1c 
L9d94     9d94   9d0d 
L9db3     9db3   9dab 
L9dc6     9dc6   9ddd 9dc1 
L9dc9     9dc9   9dfe 
L9dd0     9dd0   9e04 
L9de0     9de0   9dd2 
L9e01     9e01   9ded 9de6 
L9e07     9e07   9dce 
L9e32     9e32   9e2c 
L9e3a     9e3a   9e30 
L9e53     9e53   9e6e 9e68 9e5b 9e46 9e3f 9e38 9e34 9e20 9e12 9e0d 
L9e56     9e56   9e1c 
L9e70     9e70   9e5f 9e51 
L9eda     9eda   9c5b 
L9f13     9f13   9efb 9ef9 9eeb 9ee0 
L9f3c     9f3c   9cf6 
L9f4d     9f4d   9f18 9f49 
L9f50     9f50   9f4b 
L9f53     9f53   9f5d 88dc 
L9f5a     9f5a   9f55 
L9f63     9f63   9f86 
L9f89     9f89   9f65 
L9fdb     9fdb   9fd3 9fce 
La1aa     a1aa   9fdb 
La1b1     a1b1   a1c0 
La1c2     a1c2   a2b2 a1bc a1b4 
La1e5     a1e5   a1e1 
La1ec     a1ec   a1e8 
La209     a209   a203 
La239     a239   a235 
La24b     a24b   a247 
La261     a261   a25b a259 
La270     a270   a27f 
La282     a282   a27a 
La286     a286   a2a7 a291 
La294     a294   a28a 
La2aa     a2aa   a29d 
La3a3     a3a3   a39b 
La3a6     a3a6   a38f 
La3a9     a3a9   a3a0 
La3d3     a3d3   a403 a3f8 a3e7 
La406     a406   a3f1 
La423     a423   a437 
La439     a439   a42b a421 
Lad00     ad00   ad04 
Lad19     ad19   ad1f 
Lad24     ad24   ad09 
Lad9e     ad9e   ad99 
Lada7     ada7   adae 
Ladb0     adb0   ada9 
Laf23     af23   af1e 
Lafa3     afa3   af96 
Lafac     afac   af9b af8e 
Lafb4     afb4   afa9 
Lafd0     afd0   afbf 
Lafe4     afe4   afcd 
Lb00a     b00a   b000 
Lb09b     b09b   b106 
Lb333     b333   b38a 
Lb373     b373   b36b b369 
Lb617     b617   b61e 
Lb65d     b65d   b665 
Lb9af     b9af   b9a9 b9a5 
Lb9b1     b9b1   b9ad 
Lba52     ba52   ba4e 
Lba63     ba63   ba5f 
Lba7d     ba7d   ba7a 
Lba7f     ba7f   ba86 ba83 
Lba8e     ba8e   ba6b ba44 
S4153     4153   8724 
S4957     4957   8733 
S4e45     4e45   8753 
S4e49     4e49   88ab 
S4f44     4f44   8730 871e 
S4f54     4f54   872d 
S81e4     81e4   90e9 9784 9df8 9d91 
S81e8     81e8   9113 96fb 9cc5 9b2e 
S81f4     81f4   94f0 9b2b 9af7 
S81f8     81f8   9d68 9afa 
S8212     8212   b67b 9f80 
S8216     8216   95c5 95a5 
S8226     8226   9d82 
S8232     8232   9143 9d88 
S8236     8236   9131 
S8242     8242   9983 
S8246     8246   94cc 9d57 9d8b 
S8252     8252   94c0 9df2 9d71 
S8256     8256   94b8 9e76 
S8263     8263   9c8c 9d24 9d46 9d43 9d9d 
S8266     8266   9140 94ad 9cb4 9c8f 8474 9e79 
S826a     826a   8ee0 94b0 9c9f 9d27 9da0 
S826d     826d   85c5 912e 84bf 9466 8263 826a 9cfc 
S827a     827a   99bc 
S827e     827e   99fb 9e01 
S8281     8281   9a4c 9a2b 9f83 9f72 9474 9463 827e 9ef0 
S828e     828e   9e61 9e48 9ee2 9c37 
S829b     829b   9efd 9c41 
S82ad     82ad   9d19 9dfb 9dda 
S82c1     82c1   90bc 9718 
S82c8     82c8   9d13 9dbc 
S82cf     82cf   893a 9db6 9bd1 
S82d6     82d6   9bd4 
S82dd     82dd   b675 96ef 9c4d 994d 
S82e6     82e6   9146 9134 9119 90ef 9501 9953 
S82ef     82ef   9bfe 
S8301     8301   9def 9d6e 
S830a     830a   94a5 
S831c     831c   9e14 
S8325     8325   9116 90ec 8e5f 95a8 9581 94aa 9779 9787 9e73 87d9 997d 
S832e     832e   996e 9a84 9986 
S8337     8337   9cc2 
S8340     8340   8e51 95b0 
S8349     8349   9968 84bc 9c9c 9d21 9d3d 9d9a 9cf9 9f3c 
S835b     835b   90b3 9471 9977 
S8364     8364   9123 9eed 991b 9993 
S836d     836d   944a 
S8376     8376   9dd4 9dc9 
S837f     837f   9cc8 9c11 
S8388     8388   94fe 
S839a     839a   9da3 9c07 
S83a3     83a3   8e49 95bc 9599 9584 
S83b5     83b5   9c75 9f03 
S83c7     83c7   9dc6 
S83d0     83d0   9aee 
S83d9     83d9   b678 
S83e2     83e2   9d37 
S83ed     83ed   9059 
S83f6     83f6   9ae3 
S83ff     83ff   946e 
S8408     8408   9a4f 9479 
S8411     8411   949a 9b31 9afd 
S8415     8415   90ad 9067 
S8442     8442   949d 
S844d     844d   906a 
S8458     8458   9108 90d8 90b6 
S8474     8474   9c50 
S84bc     84bc   9cd1 
S84cb     84cb   9e0a 88a3 
S8504     8504   8d02 
S852d     852d   b0b2 b09b ba6d 
S8531     8531   ba57 
S8535     8535   ba46 
S8539     8539   b0ca 
S853d     853d   b0d9 
S8549     8549   b0df b0d0 
S854d     854d   af5f b0be 
S856c     856c   b0eb 
S8570     8570   b0fa 
S8574     8574   b103 
S8578     8578   b0af 
S857c     857c   b0c7 
S8580     8580   b0d6 b0f1 
S8584     8584   b0e5 b0f4 
S8588     8588   b0ee 
S858c     858c   b63c 
S85af     85af   9a87 
S85dd     85dd   ad7b afd5 b0a3 b639 
S85e1     85e1   af7b af6d b004 aff8 afae b00d aff0 afb9 af23 b999 
S85fb     85fb   afb4 
S85ff     85ff   acfb 
S860f     860f   afc1 
S8613     8613   ad0e 
S8623     8623   af68 b0b8 
S862a     862a   8f41 88d6 999e 
S8639     8639   9bf5 
S8648     8648   863f 
S8659     8659   9a38 
S865f     865f   9a33 
S866a     866a   9bce 
S8685     8685   8f3b 
S868b     868b   a417 9918 9b76 
S8691     8691   a3fa 
S86a0     86a0   9b61 9b5c 9b57 
S86c5     86c5   9ae0 
S8884     8884   a3df 9c1e 
S88df     88df   a3dc 9c21 
S8c19     8c19   8c7c 8c98 
S8c7c     8c7c   b396 
S8c98     8c98   b378 
S8cb5     8cb5   9b52 
S8cf4     8cf4   b62c 
S8cff     8cff   8cc9 
S8d31     8d31   9cbf 9db0 9f3f 
S8d34     8d34   9db3 
S8d38     8d38   9da6 8d31 
S8d3c     8d3c   8e68 8e62 96f8 9dad 9c0e 997a 9974 
S8d40     8d40   9a8a 8f50 9727 9df5 9d8e 9c04 995e 
S8d44     8d44   9f60 8ef6 9dc3 
S8d63     8d63   90a3 8df6 
S8d7d     8d7d   9a07 8948 99bf 9989 
S8d92     8d92   9d31 9ce1 9c1b 9bde 
S8da0     8da0   892f 9c72 9f00 
S8da7     8da7   8da0 
S8dab     8dab   8e41 96f2 9c01 8d96 9956 9950 
S8daf     8daf   9a81 892c 8f32 96e7 9d2a 9d40 9d3a 9c58 
S8db3     8db3   8eed 9d1e 9e07 
S8e22     8e22   8e3c 
S8e2a     8e2a   99f1 
S8e3c     8e3c   9c6d 
S8e81     8e81   99ec 9c68 
S8eb5     8eb5   8ecf 8ec4 
S8ebf     8ebf   8e44 
S8ecb     8ecb   8ebf 
S8f2c     8f2c   8ef0 8e54 9ca2 
S8fe2     8fe2   95bf 95f1 94ed 975a 977c 9d5a 
S8fe6     8fe6   95c2 95b3 958a 94c6 9d74 
S8fea     8fea   94c9 9d49 9d85 9980 
S8ffb     8ffb   8fed 8db6 
S9033     9033   8fff 
S907f     907f   9054 9046 
S908c     908c   906f 9b49 
S90b3     90b3   9086 9064 
S942e     942e   88ba 
S9439     9439   a39d 
S944a     944a   94b3 
S946e     946e   8e57 9769 
S94a5     94a5   8e4c 9771 
S94c6     94c6   8e5c 9776 
S9504     9504   9763 974b 
S9539     9539   9a3d 
S953d     953d   9566 9510 
S9550     9550   9752 
S9573     9573   8ef3 976e 
S95bf     95bf   87ba b672 9757 
S95e9     95e9   9594 9601 95fb 
S95f1     95f1   95a2 957e 
S964c     964c   88d9 
S9656     9656   a3e9 
S96e0     96e0   9bfb 
S96e4     96e4   9724 
S9703     9703   96f5 96e4 9ca9 
S978a     978a   97b1 954d 950b 9732 
S9799     9799   972d 
S97b9     97b9   9aa8 9a9e 9a60 9a58 9a49 9a45 8644 a400 862c 99b9 9949 
S97c1     97c1   97ef 
S97e2     97e2   a43b a432 
S97f7     97f7   a28e a274 a414 
S9824     9824   981a 9827 9807 
S9829     9829   a2a4 
S9830     9830   981e 
S983c     983c   a2a1 9813 980b 9804 
S986a     986a   9830 
S9881     9881   a294 9866 
S9906     9906   88a8 9b79 
S9918     9918   87bd 8898 8777 8718 878f 87dc 874d 8709 
S9931     9931   9927 993d 990f 
S9945     9945   9941 9937 
S9980     9980   8f3e 9971 
S9a33     9a33   9a28 9a20 
S9a93     9a93   9a8d 
S9cf9     9cf9   9cf3 9cf1 
S9d37     9d37   9d10 9d94 
S9d6e     9d6e   9d16 9dd7 
S9dbc     9dbc   9d97 
S9e0a     9e0a   9d08 
S9e73     9e73   9e56 9e41 9e3a 9e17 
S9f60     9f60   9f5a 
S9fcb     9fcb   9fd8 a409 
Sa169     a169   a26d a3bd 
Sa1cb     a1cb   a26a a1aa 
Sa1df     a1df   a27c 9fd5 
Sa1e6     a1e6   a1b6 
Sa1f8     a1f8   a1b9 9fd0 
Sa1ff     a1ff   a1b1 
Sa20a     a20a   a3c0 
Sa22f     a22f   8c53 8c4e 8c3e 8c36 8d86 
Sa233     a233   8c2b 9853 8d83 
Sa241     a241   8d17 8c66 8c62 8c4b 8c41 9abb 
Sa245     a245   9d02 9cff 9924 993a 9912 990c 9b34 
Sa24c     a24c   a3d9 a3d3 
Sa255     a255   a277 9fcb 
Sa262     a262   a283 a406 
Sa283     a283   a3d6 
Sa38c     a38c   a397 a3f5 
Sa3ac     a3ac   a3a6 
Sa3b5     a3b5   9bf8 
Sacfb     acfb   affb 
Sad79     ad79   9b4c 
Sad95     ad95   ad0b 
Saf1c     af1c   af76 af65 b0c4 b0ac 
Saf5c     af5c   b100 
Saf76     af76   b0f7 
Saf84     af84   b0b5 b0a9 
Safee     afee   afdb afc4 
Saff6     aff6   af88 
Sb00b     b00b   afa0 af98 af93 af8b 
Sb013     b013   af9d af90 
Sb068     b068   b010 afbc 
Sb0e8     b0e8   b6c0 
Sb365     b365   88d3 
Sb391     b391   8cff 
Sb615     b615   b634 
Sb62c     b62c   9b4f 
Sb694     b694   b6a5 
Sb6a1     b6a1   b65f 
Sb996     b996   ba5c ba4b 
Sba3d     ba3d   b66c 
Sd800     d800   955c 
Sd8e6     d8e6   9a93 
Sd9d2     d9d2   b99f ba70 
Sda44     da44   87b7 ad9b b0fd b0e8 b66f 
Sda60     da60   ad21 b068 afd8 b0a6 
Sda66     da66   af7e af70 b007 afb1 b99c 
Sdadb     dadb   af62 ad11 aff3 b0e2 b0d3 b0c1 
Sdb28     db28   ad06 af26 
Sdd40     dd40   afe4 
Sddb6     ddb6   af5c ad14 afd0 b0dc b0cd b0bb b09e 
Se456     e456   8cf1 8cd3 9653 97da 
Se45c     e45c   9b73 9b6a 
Z00       0000   8603 861a 85f4 85c1 85bb 8422 841c 8418 9bc2 8dbd 8d52 
Z01       0001   85ce 8430 8426 8424 8dc2 8d57 
Z02       0002   85e5 
Z03       0003   85e7 
Z04       0004   85e9 
Z05       0005   85eb 
Z0a       000a   8dd2 8dc7 8d5c 8d46 
Z0b       000b   8dd6 8dcc 8d61 8d4a 
Z10       0010   9ada 9ad6 
Z11       0011   888b 8884 
Z20       0020   99c8 
Z4c       004c   9a0b 
Z54       0054   8506 b36d b367 a2b0 a268 982d 9881 9864 983d a3b9 872b 
Z55       0055   
Z55       0055   850a b371 a2ac a286 a264 9833 9816 982b 98ac 980e 97fb a3b5 
Z5a       005a   a2ae a266 9862 a3bb 
Z5b       005b   a2aa a262 a3b7 
Z85       0085   9092 9019 9017 9013 9009 8d76 8d6b 
Z86       0086   9094 901b 900d 8ffb 8d7a 8d70 
Z87       0087   8258 8ff4 8238 81f1 81ec 9d7e 9d79 8d92 837f 8d8c 8d7e 835b 
Z87       0087   8325 9b29 
Z87       0087   83f8 8d13 9081 9104 90ff 90f7 90e7 90e3 90d4 90cf 90c5 90c1 
Z87       0087   9076 905e 9038 a231 8c26 9f79 a233 9856 9851 984d 9845 82f1 
Z87       0087   94f7 9782 82df 831e 8201 81fc 82f8 9d66 9d61 8303 825e 825c 
Z87       0087   95e2 95d0 8401 8448 9604 95fe 95f8 8218 830c 8388 82e8 94fc 
Z88       0088   83fc 8d1a 8d0b 907f 9062 8c29 9f7e a237 985c 9849 82f5 8405 
Z88       0088   8442 821d 8310 838c 82ec 82e3 8322 82fc 8307 8260 8ff8 823d 
Z88       0088   8d94 8383 8d81 835f 8329 
Z89       0089   826f 834b 9ee7 991f 99a3 9998 8327 9933 a245 9907 9b02 9ae8 
Z89       0089   8342 945d 9456 944f 94eb 94e6 94df 94d8 82c3 8339 9cb9 9cae 
Z89       0089   83db 8d0d 8330 85da 85cc 85bf 85b9 85b1 a243 8c30 9f6b 891e 
Z89       0089   8e24 8eb7 84c4 95da 95d5 95cc 95ba 9597 9591 83a3 821f 821a 
Z89       0089   9ab9 
Z89       0089   9c92 9c7a 9c60 82dd 847b 8364 83b5 9e64 9e59 8296 9e4d 9e44 
Z89       0089   9e3d 9e1a 83e5 822f 822a 8248 81ea 9d80 9d7b 839a 8275 8273 
Z8a       008a   81ef 839e 8277 834f 9922 998f 832b a249 990a 9b37 9aec 9abe 
Z8a       008a   8346 96ea 82c5 833d 9c96 82e1 8368 83b9 9e6a 8298 83ea 824d 
Z8a       008a   83df 8d1c 8d0f 8334 85d7 85b4 911f 8c34 9f70 8923 8ecb 83a7 
Z8a       008a   9ab5 
Z8b       008b   823a 824f 824a 9f08 9ef5 835d 9af5 
Z8b       008b   83d2 91e4 91d4 832e 9a54 9a26 9a1e 9a11 99d4 913e 913a 9128 
Z8b       008b   8408 947e 836f 945f 9458 9451 82e6 94e1 94da 94d3 8366 81fa 
Z8b       008b   910f 9101 90df 90d1 8c5e 8c5a 8c51 9f7c 9f77 9f6e 9f69 840e 
Z8b       008b   9d55 9d50 82ca 83c7 8289 8287 8283 9deb 9de4 8378 8228 823f 
Z8c       008c   836a 81ff 82cc 83cb 828b 837c 822d 9dd0 8361 
Z8c       008c   83d6 91db 8332 8458 9106 90d6 8c56 9f63 840c 8373 946b 82ea 
Z8d       008d   9cd7 84c6 9c94 9f13 82d1 9da9 9f47 9cd9 9f0e 9c33 
Z8e       008e   84c8 9c98 82d3 9f0a 9ef7 
Z8f       008f   8934 83b7 8349 9ce9 9be9 
Z90       0090   8938 83bb 834d 9bf3 
Z91       0091   9044 9041 8df2 8df0 8dec 8de2 8ddf 8ddb 9bc9 8d9d 
Z92       0092   8df4 8de6 
Z96       0096   9dbf 9f53 
Z97       0097   831c 
Z98       0098   8320 
Z99       0099   9e28 9e24 
Z9b       009b   82d8 82ef 8337 82a3 82a1 829d 8294 8290 839c 9edc 9c3c 9c2d 
Z9b       009b   8381 
Z9c       009c   82da 82f3 833b 82a5 9e5d 83a0 9c24 8385 9c0a 
Z9d       009d   83a5 8340 836d 94e4 
Z9e       009e   83a9 8344 8371 94e9 
Z9f       009f   830a 838a 94f5 9b45 
Za0       00a0   830e 838e 94fa 9b47 
Za1       00a1   9074 903a 
Za7       00a7   82fa 9de9 9de2 8301 82b5 82b3 82af 
Za8       00a8   82fe 8305 82b7 9dcc 
Za9       00a9   908e 9030 902a 8d63 
Zaa       00aa   9090 902e 9002 8d67 
Zab       00ab   a1cd a1c2 83c9 8376 
Zac       00ac   a1d1 a1c6 83cd 837a 
Zad       00ad   a1df a410 a3d1 
Zad       00ad   a20a a252 a24e a16d a272 a25d a1cb a1ff a1ec a1e6 a1fa a1c4 
Zae       00ae   a20e a173 a255 a1cf a205 a1ea a1c8 a1e3 
Zaf       00af   a16f a201 
Zb0       00b0   a175 a207 
Zb1       00b1   a20c a25f 
Zb2       00b2   a210 a257 
Zb3       00b3   a171 
Zb4       00b4   a177 
Zb5       00b5   96e2 8f48 9701 979d 956b 9534 9504 9496 9488 9574 9747 9737 
Zb5       00b5   9722 9716 9703 9ca7 
Zb6       00b6   a1be a1af 
Zb7       00b7   8f30 9558 9536 9506 9477 95ee 95e9 9576 970c 
Zb8       00b8   8f46 8f44 8f2e 
Zb9       00b9   b017 b013 afe7 af86 
Zba       00ba   
Zba       00ba   a299 9835 98b1 98af 98a4 98a0 9897 9895 9890 988c 988a 987a 
Zbb       00bb   9839 98b5 98aa 98a6 989d 9899 9892 988e 9888 
Zbf       00bf   
Zbf       00bf   83ef 8453 90ab 909f 9096 905c 9028 9021 900b 8ff2 8de4 8dd0 
Zbf       00bf   8dce 8dc9 8dc4 8dbf 8d74 8d72 8d6d 8d5f 8d5a 8d55 8d50 8d48 
Zc0       00c0   83f3 844d 909b 9060 900f 8ff6 8de8 8dd4 8d78 8d4c 
Zc3       00c3   8680 8652 
Zc4       00c4   8682 8656 
Zc5       00c5   8663 869b 8f4e 8f35 
Zc6       00c6   8667 869d 8f4b 8f38 
Zd2       00d2   b694 91d7 
Zd3       00d3   b699 8599 91cd 855a ba88 ba63 ba52 ba3d 88c2 
Zd4       00d4   8623 859e b9b2 b9ab b9a2 8562 ba74 95d3 
Zd4       00d4   adab ad9e ad95 ad1a ad00 affe b06b afeb afe9 afa7 afa3 8627 
Zd5       00d5   b9a7 ba76 95d8 
Zda       00da   95e0 
Zf2       00f2   9561 955a 
Zf3       00f3   9a9a 9556 
Zf4       00f4   9552 
